
main.elf:     file format elf32-littlearm

Sections:
Idx Name          Size      VMA       LMA       File off  Algn
  0 .text         00002e08  00100000  00100000  00008000  2**2
                  CONTENTS, ALLOC, LOAD, READONLY, CODE
  1 .ctors        00000000  00102e08  00102e08  0001095c  2**0
                  CONTENTS
  2 .dtors        00000000  00102e08  00102e08  0001095c  2**0
                  CONTENTS
  3 .rodata       0000029c  00102e08  00102e08  0000ae08  2**2
                  CONTENTS, ALLOC, LOAD, READONLY, DATA
  4 .data         0000095c  00200000  001030a4  00010000  2**2
                  CONTENTS, ALLOC, LOAD, CODE
  5 .bss          00000048  0020095c  0020095c  0001095c  2**2
                  ALLOC
  6 .comment      0000020a  00000000  00000000  0001095c  2**0
                  CONTENTS, READONLY
  7 .debug_aranges 00000420  00000000  00000000  00010b68  2**3
                  CONTENTS, READONLY, DEBUGGING
  8 .debug_pubnames 00000746  00000000  00000000  00010f88  2**0
                  CONTENTS, READONLY, DEBUGGING
  9 .debug_info   0000ed41  00000000  00000000  000116ce  2**0
                  CONTENTS, READONLY, DEBUGGING
 10 .debug_abbrev 00002b14  00000000  00000000  0002040f  2**0
                  CONTENTS, READONLY, DEBUGGING
 11 .debug_line   0000297c  00000000  00000000  00022f23  2**0
                  CONTENTS, READONLY, DEBUGGING
 12 .debug_frame  00000920  00000000  00000000  000258a0  2**2
                  CONTENTS, READONLY, DEBUGGING
 13 .debug_str    000017fa  00000000  00000000  000261c0  2**0
                  CONTENTS, READONLY, DEBUGGING
 14 .debug_loc    0000498d  00000000  00000000  000279ba  2**0
                  CONTENTS, READONLY, DEBUGGING
 15 .debug_ranges 00000320  00000000  00000000  0002c347  2**0
                  CONTENTS, READONLY, DEBUGGING
Disassembly of section .text:

00100000 <Vectors>:
			.text
			.arm
			.section .vectrom, "ax"

Vectors:        LDR     PC,Reset_Addr         
  100000:	e59ff018 	ldr	pc, [pc, #24]	; 100020 <Reset_Addr>
                LDR     PC,Undef_Addr
  100004:	e59ff018 	ldr	pc, [pc, #24]	; 100024 <Undef_Addr>
                LDR     PC,SWI_Addr
  100008:	e59ff018 	ldr	pc, [pc, #24]	; 100028 <SWI_Addr>
                LDR     PC,PAbt_Addr
  10000c:	e59ff018 	ldr	pc, [pc, #24]	; 10002c <PAbt_Addr>
                LDR     PC,DAbt_Addr
  100010:	e59ff018 	ldr	pc, [pc, #24]	; 100030 <DAbt_Addr>
                NOP                            /* Reserved Vector */
  100014:	e1a00000 	nop			(mov r0,r0)
//                LDR     PC,IRQ_Addr
                LDR     PC,[PC,#-0xF20]        /* Vector From AIC_IVR */
  100018:	e51fff20 	ldr	pc, [pc, #-3872]	; ff100 <PMC_OSCOUNT+0xef200>
//                LDR     PC,FIQ_Addr
                LDR     PC,[PC,#-0xF20]        /* Vector From AIC_FVR */
  10001c:	e51fff20 	ldr	pc, [pc, #-3872]	; ff104 <PMC_OSCOUNT+0xef204>

00100020 <Reset_Addr>:
  100020:	0010005c 	andeqs	r0, r0, ip, asr r0

00100024 <Undef_Addr>:
  100024:	00100040 	andeqs	r0, r0, r0, asr #32

00100028 <SWI_Addr>:
  100028:	00100044 	andeqs	r0, r0, r4, asr #32

0010002c <PAbt_Addr>:
  10002c:	00100048 	andeqs	r0, r0, r8, asr #32

00100030 <DAbt_Addr>:
  100030:	0010004c 	andeqs	r0, r0, ip, asr #32
  100034:	00000000 	andeq	r0, r0, r0

00100038 <IRQ_Addr>:
  100038:	00100050 	andeqs	r0, r0, r0, asr r0

0010003c <FIQ_Addr>:
  10003c:	00100054 	andeqs	r0, r0, r4, asr r0

00100040 <Undef_Handler>:

Reset_Addr:     .word   Reset_Handler
Undef_Addr:     .word   Undef_Handler
SWI_Addr:       .word   SWI_Handler
PAbt_Addr:      .word   PAbt_Handler
DAbt_Addr:      .word   DAbt_Handler
                .word   0                      /* Reserved Address */
IRQ_Addr:       .word   IRQ_Handler
FIQ_Addr:       .word   FIQ_Handler

Undef_Handler:  B       Undef_Handler
  100040:	eafffffe 	b	100040 <Undef_Handler>

00100044 <SWI_Handler>:
SWI_Handler:    B       SWI_Handler
  100044:	eafffffe 	b	100044 <SWI_Handler>

00100048 <PAbt_Handler>:
PAbt_Handler:   B       PAbt_Handler
  100048:	eafffffe 	b	100048 <PAbt_Handler>

0010004c <DAbt_Handler>:
DAbt_Handler:   B       DAbt_Handler
  10004c:	eafffffe 	b	10004c <DAbt_Handler>

00100050 <IRQ_Handler>:
IRQ_Handler:    B       IRQ_Handler
  100050:	eafffffe 	b	100050 <IRQ_Handler>

00100054 <FIQ_Handler>:
FIQ_Handler:    B       FIQ_Handler
  100054:	eafffffe 	b	100054 <FIQ_Handler>

00100058 <_startup>:


// Starupt Code must be linked first at Address at which it expects to run.

		.text
		.arm
		.section .init, "ax"
	
		.global _startup
		.func   _startup
_startup:


// Reset Handler
                LDR     pc, =Reset_Handler
  100058:	e59ff120 	ldr	pc, [pc, #288]	; 100180 <.text+0x180>

0010005c <Reset_Handler>:
Reset_Handler:

// Setup EFC
.if EFC_SETUP
                LDR     R0, =EFC_BASE
  10005c:	e3e000ff 	mvn	r0, #255	; 0xff
                LDR     R1, =EFC_FMR_Val
  100060:	e59f111c 	ldr	r1, [pc, #284]	; 100184 <.text+0x184>
                STR     R1, [R0, #EFC_FMR]
  100064:	e5801060 	str	r1, [r0, #96]
.endif


// Setup WDT
.if WDT_SETUP
                LDR     R0, =WDT_BASE
  100068:	e59f0118 	ldr	r0, [pc, #280]	; 100188 <.text+0x188>
                LDR     R1, =WDT_MR_Val
  10006c:	e3a01902 	mov	r1, #32768	; 0x8000
                STR     R1, [R0, #WDT_MR]
  100070:	e5801004 	str	r1, [r0, #4]
.endif


// Setup PMC
.if PMC_SETUP
                LDR     R0, =PMC_BASE
  100074:	e59f0110 	ldr	r0, [pc, #272]	; 10018c <.text+0x18c>

//  Setup Main Oscillator
                LDR     R1, =PMC_MOR_Val
  100078:	e59f1110 	ldr	r1, [pc, #272]	; 100190 <.text+0x190>
                STR     R1, [R0, #PMC_MOR]
  10007c:	e5801020 	str	r1, [r0, #32]

00100080 <MOSCS_Loop>:

//  Wait until Main Oscillator is stablilized
.if (PMC_MOR_Val & PMC_MOSCEN)
MOSCS_Loop:     LDR     R2, [R0, #PMC_SR]
  100080:	e5902068 	ldr	r2, [r0, #104]
                ANDS    R2, R2, #PMC_MOSCS
  100084:	e2122001 	ands	r2, r2, #1	; 0x1
                BEQ     MOSCS_Loop
  100088:	0afffffc 	beq	100080 <MOSCS_Loop>
.endif

//  Setup the PLL
.if (PMC_PLLR_Val & PMC_MUL)
                LDR     R1, =PMC_PLLR_Val
  10008c:	e59f1100 	ldr	r1, [pc, #256]	; 100194 <.text+0x194>
                STR     R1, [R0, #PMC_PLLR]
  100090:	e580102c 	str	r1, [r0, #44]

00100094 <PLL_Loop>:

//  Wait until PLL is stabilized
PLL_Loop:       LDR     R2, [R0, #PMC_SR]
  100094:	e5902068 	ldr	r2, [r0, #104]
                ANDS    R2, R2, #PMC_LOCK
  100098:	e2122004 	ands	r2, r2, #4	; 0x4
                BEQ     PLL_Loop
  10009c:	0afffffc 	beq	100094 <PLL_Loop>
.endif

//  Select Clock
                LDR     R1, =PMC_MCKR_Val
  1000a0:	e3a01007 	mov	r1, #7	; 0x7
                STR     R1, [R0, #PMC_MCKR]
  1000a4:	e5801030 	str	r1, [r0, #48]
.endif


// Setup Stack for each mode

                LDR     R0, =Top_Stack
  1000a8:	e3a00981 	mov	r0, #2113536	; 0x204000

//  Enter Undefined Instruction Mode and set its Stack Pointer
                MSR     CPSR_c, #Mode_UND|I_Bit|F_Bit
  1000ac:	e321f0db 	msr	CPSR_c, #219	; 0xdb
                MOV     SP, R0
  1000b0:	e1a0d000 	mov	sp, r0
                SUB     R0, R0, #UND_Stack_Size
  1000b4:	e2400004 	sub	r0, r0, #4	; 0x4

//  Enter Abort Mode and set its Stack Pointer
                MSR     CPSR_c, #Mode_ABT|I_Bit|F_Bit
  1000b8:	e321f0d7 	msr	CPSR_c, #215	; 0xd7
                MOV     SP, R0
  1000bc:	e1a0d000 	mov	sp, r0
                SUB     R0, R0, #ABT_Stack_Size
  1000c0:	e2400004 	sub	r0, r0, #4	; 0x4

//  Enter FIQ Mode and set its Stack Pointer
                MSR     CPSR_c, #Mode_FIQ|I_Bit|F_Bit
  1000c4:	e321f0d1 	msr	CPSR_c, #209	; 0xd1
                MOV     SP, R0
  1000c8:	e1a0d000 	mov	sp, r0
                SUB     R0, R0, #FIQ_Stack_Size
  1000cc:	e2400004 	sub	r0, r0, #4	; 0x4

//  Enter IRQ Mode and set its Stack Pointer
                MSR     CPSR_c, #Mode_IRQ|I_Bit|F_Bit
  1000d0:	e321f0d2 	msr	CPSR_c, #210	; 0xd2
                MOV     SP, R0
  1000d4:	e1a0d000 	mov	sp, r0
                SUB     R0, R0, #IRQ_Stack_Size
  1000d8:	e2400c01 	sub	r0, r0, #256	; 0x100

//  Enter Supervisor Mode and set its Stack Pointer
                MSR     CPSR_c, #Mode_SVC|I_Bit|F_Bit
  1000dc:	e321f0d3 	msr	CPSR_c, #211	; 0xd3
                MOV     SP, R0
  1000e0:	e1a0d000 	mov	sp, r0
                SUB     R0, R0, #SVC_Stack_Size
  1000e4:	e2400c01 	sub	r0, r0, #256	; 0x100

//  Enter User Mode and set its Stack Pointer
                MSR     CPSR_c, #Mode_USR
  1000e8:	e321f010 	msr	CPSR_c, #16	; 0x10
                MOV     SP, R0
  1000ec:	e1a0d000 	mov	sp, r0

// Setup a default Stack Limit (when compiled with "-mapcs-stack-check")
                SUB     SL, SP, #USR_Stack_Size
  1000f0:	e24dab01 	sub	sl, sp, #1024	; 0x400


// Relocate .data section (Copy from ROM to RAM)
                LDR     R1, =_etext
  1000f4:	e59f109c 	ldr	r1, [pc, #156]	; 100198 <.text+0x198>
                LDR     R2, =_data
  1000f8:	e59f209c 	ldr	r2, [pc, #156]	; 10019c <.text+0x19c>
                LDR     R3, =_edata
  1000fc:	e59f309c 	ldr	r3, [pc, #156]	; 1001a0 <.text+0x1a0>

00100100 <LoopRel>:
LoopRel:        CMP     R2, R3
  100100:	e1520003 	cmp	r2, r3
                LDRLO   R0, [R1], #4
  100104:	34910004 	ldrcc	r0, [r1], #4
                STRLO   R0, [R2], #4
  100108:	34820004 	strcc	r0, [r2], #4
                BLO     LoopRel
  10010c:	3afffffb 	bcc	100100 <LoopRel>


// Clear .bss section (Zero init)
                MOV     R0, #0
  100110:	e3a00000 	mov	r0, #0	; 0x0
                LDR     R1, =__bss_start__
  100114:	e59f1088 	ldr	r1, [pc, #136]	; 1001a4 <.text+0x1a4>
                LDR     R2, =__bss_end__
  100118:	e59f2088 	ldr	r2, [pc, #136]	; 1001a8 <.text+0x1a8>

0010011c <LoopZI>:
LoopZI:         CMP     R1, R2
  10011c:	e1510002 	cmp	r1, r2
                STRLO   R0, [R1], #4
  100120:	34810004 	strcc	r0, [r1], #4
                BLO     LoopZI
  100124:	3afffffc 	bcc	10011c <LoopZI>


#ifdef VECTORS_IN_RAM
/* 
   remap - exception vectors for RAM have been already copied 
   to 0x00200000 by the .data copy-loop 
*/
				.equ    MC_BASE,0xFFFFFF00  /* MC Base Address */
				.equ    MC_RCR, 0x00        /* MC_RCR Offset */

				LDR     R0, =MC_BASE
  100128:	e3e000ff 	mvn	r0, #255	; 0xff
				MOV     R1, #1
  10012c:	e3a01001 	mov	r1, #1	; 0x1
				STR     R1, [R0, #MC_RCR]   // Remap
  100130:	e5801000 	str	r1, [r0]
#endif /* VECTORS_IN_RAM */


/*
   Call C++ constructors (for objects in "global scope")
   added by Martin Thomas based on a Anglia Design 
   example-application for STR7 ARM
*/

			LDR 	r0, =__ctors_start__
  100134:	e59f0070 	ldr	r0, [pc, #112]	; 1001ac <.text+0x1ac>
			LDR 	r1, =__ctors_end__
  100138:	e59f1070 	ldr	r1, [pc, #112]	; 1001b0 <.text+0x1b0>

0010013c <ctor_loop>:
ctor_loop:
			CMP 	r0, r1
  10013c:	e1500001 	cmp	r0, r1
			BEQ 	ctor_end
  100140:	0a000005 	beq	10015c <ctor_end>
			LDR 	r2, [r0], #4   /* this ctor's address */
  100144:	e4902004 	ldr	r2, [r0], #4
			STMFD 	sp!, {r0-r1}   /* save loop counters  */
  100148:	e92d0003 	stmdb	sp!, {r0, r1}
			MOV 	lr, pc         /* set return address  */
  10014c:	e1a0e00f 	mov	lr, pc
//			MOV 	pc, r2
			BX      r2             /* call ctor */
  100150:	e12fff12 	bx	r2
			LDMFD 	sp!, {r0-r1}   /* restore loop counters */
  100154:	e8bd0003 	ldmia	sp!, {r0, r1}
			B 		ctor_loop
  100158:	eafffff7 	b	10013c <ctor_loop>

0010015c <ctor_end>:
ctor_end:

       
// Enter the C code
				mov   r0,#0            // no arguments (argc = 0)
  10015c:	e3a00000 	mov	r0, #0	; 0x0
				mov   r1,r0
  100160:	e1a01000 	mov	r1, r0
				mov   r2,r0
  100164:	e1a02000 	mov	r2, r0
				mov   fp,r0            // null frame pointer
  100168:	e1a0b000 	mov	fp, r0
				mov   r7,r0            // null frame pointer for thumb
  10016c:	e1a07000 	mov	r7, r0
				ldr   r10,=main
  100170:	e59fa03c 	ldr	sl, [pc, #60]	; 1001b4 <.text+0x1b4>
				adr   lr, __main_exit
  100174:	e28fe000 	add	lr, pc, #0	; 0x0
				bx    r10              // enter main()
  100178:	e12fff1a 	bx	sl

0010017c <__main_exit>:

__main_exit:    B       __main_exit
  10017c:	eafffffe 	b	10017c <__main_exit>
  100180:	0010005c 	andeqs	r0, r0, ip, asr r0
  100184:	00320100 	eoreqs	r0, r2, r0, lsl #2
  100188:	fffffd40 	swinv	0x00fffd40
  10018c:	fffffc00 	swinv	0x00fffc00
  100190:	00000601 	andeq	r0, r0, r1, lsl #12
  100194:	00191c05 	andeqs	r1, r9, r5, lsl #24
  100198:	001030a4 	andeqs	r3, r0, r4, lsr #1
  10019c:	00200000 	eoreq	r0, r0, r0
  1001a0:	0020095c 	eoreq	r0, r0, ip, asr r9
  1001a4:	0020095c 	eoreq	r0, r0, ip, asr r9
  1001a8:	002009a4 	eoreq	r0, r0, r4, lsr #19
  1001ac:	00102e08 	andeqs	r2, r0, r8, lsl #28
  1001b0:	00102e08 	andeqs	r2, r0, r8, lsl #28
  1001b4:	00100225 	andeqs	r0, r0, r5, lsr #4

001001b8 <init_timer>:
  volatile AT91S_AIC * pAIC = AT91C_BASE_AIC;

  //*AT91C_PIOA_CODR = LED3; 

  *AT91C_PITC_PIMR = AT91C_PITC_PITIEN |    /* PIT Interrupt Enable */ 
  1001b8:	e59f2024 	ldr	r2, [pc, #36]	; 1001e4 <.text+0x1e4>
  1001bc:	e3e03000 	mvn	r3, #0	; 0x0
  1001c0:	e50322cf 	str	r2, [r3, #-719]
                     AT91C_PITC_PITEN  |    /* PIT Enable */
                     PIV;                   /* Periodic Interval Value */ 

  /* Setup System Interrupt Mode and Vector with Priority 7 and Enable it */
  // mt pAIC->AIC_SMR[AT91C_ID_SYS] = AT91C_AIC_SRCTYPE_INT_EDGE_TRIGGERED | 7;
  pAIC->AIC_SMR[AT91C_ID_SYS] = AT91C_AIC_SRCTYPE_INT_POSITIVE_EDGE | 7;
  1001c4:	e3e01c0f 	mvn	r1, #3840	; 0xf00
  1001c8:	e2833028 	add	r3, r3, #40	; 0x28
  1001cc:	e50130fb 	str	r3, [r1, #-251]
  
  pAIC->AIC_SVR[AT91C_ID_SYS] = (unsigned long) system_int;
  1001d0:	e59f3010 	ldr	r3, [pc, #16]	; 1001e8 <.text+0x1e8>
  1001d4:	e501307b 	str	r3, [r1, #-123]
  pAIC->AIC_IECR = (1 << AT91C_ID_SYS);
  1001d8:	e3a03002 	mov	r3, #2	; 0x2
  1001dc:	e5813021 	str	r3, [r1, #33]
  
  //*AT91C_PIOA_CODR = LED2; 
  
}
  1001e0:	e12fff1e 	bx	lr
  1001e4:	03000bba 	tsteq	r0, #190464	; 0x2e800
  1001e8:	00200884 	eoreq	r0, r0, r4, lsl #17

001001ec <init_extint>:
  volatile AT91S_AIC * pAIC = AT91C_BASE_AIC;

  /* Setup IRQ0 Interrupt Mode and Vector with Priority 0 and Enable it */
  // mt: pAIC->AIC_SMR[AT91C_ID_IRQ0] = AT91C_AIC_SRCTYPE_INT_EDGE_TRIGGERED | 0;
  pAIC->AIC_SMR[AT91C_ID_IRQ0] = AT91C_AIC_SRCTYPE_INT_POSITIVE_EDGE | 0;
  1001ec:	e3e02c0f 	mvn	r2, #3840	; 0xf00
  1001f0:	e3a03020 	mov	r3, #32	; 0x20
  1001f4:	e5023087 	str	r3, [r2, #-135]
 
  pAIC->AIC_SVR[AT91C_ID_IRQ0] = (unsigned long) irq0_int;
  1001f8:	e59f300c 	ldr	r3, [pc, #12]	; 10020c <.text+0x20c>
  1001fc:	e5023007 	str	r3, [r2, #-7]
  pAIC->AIC_IECR = (1 << AT91C_ID_IRQ0);
  100200:	e3a03101 	mov	r3, #1073741824	; 0x40000000
  100204:	e5823021 	str	r3, [r2, #33]
}
  100208:	e12fff1e 	bx	lr
  10020c:	002008f0 	streqd	r0, [r0], -r0

00100210 <wait>:
void wait(unsigned long time)
{
	unsigned long tick;
	
	tick = timeval;
  100210:	4b03      	ldr	r3, [pc, #12]	(100220 <.text+0x220>)
  100212:	681a      	ldr	r2, [r3, #0]
  100214:	1c19      	mov	r1, r3		(add r1, r3, #0)
	
	/* Wait for specified Time */
	while ((unsigned long)(timeval - tick) < time);
  100216:	680b      	ldr	r3, [r1, #0]
  100218:	1a9b      	sub	r3, r3, r2
  10021a:	4283      	cmp	r3, r0
  10021c:	d3fb      	bcc	100216 <wait+0x6>
}
  10021e:	4770      	bx	lr
  100220:	09a0      	lsr	r0, r4, #6
  100222:	0020      	lsl	r0, r4, #0

00100224 <main>:

#if 0
static void test(void)
{
	unsigned short q = 0;
	volatile unsigned long* p = (unsigned long)(0);
	do {
		iprintf("Addr %i %08x\n", q, *p);
		q++;
		p++;
	} while (q<22);
}
#endif


/*** Main Program ***/

int main (void) {
  100224:	b510      	push	{r4, lr}
  unsigned long n;
  char flag;
   
	// enable reset-button (mt)
	// AT91F_RSTSetMode( AT91C_BASE_RSTC , AT91C_RSTC_URSTEN );
	*AT91C_RSTC_RMR = ( 0xA5000000 | AT91C_RSTC_URSTEN );
  100226:	4a29      	ldr	r2, [pc, #164]	(1002cc <.text+0x2cc>)
  100228:	4b29      	ldr	r3, [pc, #164]	(1002d0 <.text+0x2d0>)
  10022a:	601a      	str	r2, [r3, #0]
	
	*AT91C_PMC_PCER = (1 << AT91C_ID_PIOA) |  /* Enable Clock for PIO    */
  10022c:	4a29      	ldr	r2, [pc, #164]	(1002d4 <.text+0x2d4>)
  10022e:	3bf8      	sub	r3, #248
  100230:	601a      	str	r2, [r3, #0]
		(1 << AT91C_ID_IRQ0) |  /* Enable Clock for IRQ0   */
		(1 << AT91C_ID_US0);    /* Enable Clock for USART0 */
	
	pPIO->PIO_PER  = LED_MASK;                /* Enable PIO for LED1..4  */
  100232:	4b29      	ldr	r3, [pc, #164]	(1002d8 <.text+0x2d8>)
  100234:	681a      	ldr	r2, [r3, #0]
  100236:	230f      	mov	r3, #15
  100238:	6013      	str	r3, [r2, #0]
	pPIO->PIO_OER  = LED_MASK;                /* LED1..4 are Outputs     */
  10023a:	6113      	str	r3, [r2, #16]
	pPIO->PIO_SODR = LED_MASK;                /* Turn off LED's ("1")    */
  10023c:	6313      	str	r3, [r2, #48]
	pPIO->PIO_OWER = LED4;                    /* LED4 ODSR Write Enable  */
  10023e:	2308      	mov	r3, #8
  100240:	32a0      	add	r2, #160
  100242:	6013      	str	r3, [r2, #0]
	
	uart0_init();                             /* Initialize Serial Interface */
  100244:	f852f000 	bl	1002ec <uart0_init>
	
	unsigned short q = 4;
	iprintf("Hello from the WinARM example!  (1 2 %i %i)\r\n", 3, q);
  100248:	2103      	mov	r1, #3
  10024a:	2204      	mov	r2, #4
  10024c:	4823      	ldr	r0, [pc, #140]	(1002dc <.text+0x2dc>)
  10024e:	f90ff000 	bl	100470 <iprintf>
	// *AT91C_PIOA_CODR = LED4; 
	// test();
	
	init_timer ();                            /* Initialize Timer */
  100252:	fdd1f002 	bl	102df8 <__init_timer_from_thumb>
	init_extint();                            /* Initialize External Interrupt */
  100256:	fdd3f002 	bl	102e00 <__init_extint_from_thumb>
	
	flag = 0;
	
	while (1) {                              /* Loop forever */
	
		n = pPIO->PIO_PDSR;                   /* Read Pin Data */
  10025a:	4b1f      	ldr	r3, [pc, #124]	(1002d8 <.text+0x2d8>)
  10025c:	681a      	ldr	r2, [r3, #0]
  10025e:	6bd4      	ldr	r4, [r2, #60]
		if ((n & SW1) == 0) {                /* Check if SW1 is pressed */
  100260:	0323      	lsl	r3, r4, #12
  100262:	d414      	bmi	10028e <main+0x6a>
		pPIO->PIO_CODR = LED1;                /* Turn On LED1 */
  100264:	2301      	mov	r3, #1
  100266:	6353      	str	r3, [r2, #52]
		iprintf ("Hello World !\n");          /* Print "Hello World !" */
  100268:	481d      	ldr	r0, [pc, #116]	(1002e0 <.text+0x2e0>)
  10026a:	f901f000 	bl	100470 <iprintf>
  10026e:	4b1d      	ldr	r3, [pc, #116]	(1002e4 <.text+0x2e4>)
  100270:	681a      	ldr	r2, [r3, #0]
  100272:	1c19      	mov	r1, r3		(add r1, r3, #0)
  100274:	680b      	ldr	r3, [r1, #0]
  100276:	1a9b      	sub	r3, r3, r2
  100278:	2b63      	cmp	r3, #99
  10027a:	d9fb      	bls	100274 <main+0x50>
		wait(100);                            /* Wait 100ms */
		pPIO->PIO_SODR = LED1;                /* Turn Off LED1 */
  10027c:	4b16      	ldr	r3, [pc, #88]	(1002d8 <.text+0x2d8>)
  10027e:	681a      	ldr	r2, [r3, #0]
  100280:	2301      	mov	r3, #1
  100282:	6313      	str	r3, [r2, #48]
  100284:	680a      	ldr	r2, [r1, #0]
  100286:	680b      	ldr	r3, [r1, #0]
  100288:	1a9b      	sub	r3, r3, r2
  10028a:	2b63      	cmp	r3, #99
  10028c:	d9fb      	bls	100286 <main+0x62>
		wait(100);                            /* Wait 100ms */
		}
		if (((n & SW3) == 0) && (n & SW4)) {   /* Check if SW3 is pressed */
  10028e:	23c0      	mov	r3, #192
  100290:	021b      	lsl	r3, r3, #8
  100292:	2180      	mov	r1, #128
  100294:	4023      	and	r3, r4
  100296:	01c9      	lsl	r1, r1, #7
  100298:	428b      	cmp	r3, r1
  10029a:	d103      	bne	1002a4 <main+0x80>
			pPIO->PIO_CODR = LED3;              /* Turn On LED3 */
  10029c:	4b0e      	ldr	r3, [pc, #56]	(1002d8 <.text+0x2d8>)
  10029e:	681a      	ldr	r2, [r3, #0]
  1002a0:	2304      	mov	r3, #4
  1002a2:	6353      	str	r3, [r2, #52]
		}
		if ((n & SW4) == 0) {                   /* Check if SW4 is pressed */
  1002a4:	420c      	tst	r4, r1
  1002a6:	d103      	bne	1002b0 <main+0x8c>
			pPIO->PIO_SODR = LED3;               /* Turn Off LED3 */
  1002a8:	4b0b      	ldr	r3, [pc, #44]	(1002d8 <.text+0x2d8>)
  1002aa:	681a      	ldr	r2, [r3, #0]
  1002ac:	2304      	mov	r3, #4
  1002ae:	6313      	str	r3, [r2, #48]
		}
		
		if ( uart0_kbhit() ) {
  1002b0:	f83af000 	bl	100328 <uart0_kbhit>
  1002b4:	2800      	cmp	r0, #0
  1002b6:	d0d0      	beq	10025a <main+0x36>
			int c = uart0_getc();
  1002b8:	f83ef000 	bl	100338 <uart0_getc>
  1002bc:	1c01      	mov	r1, r0		(add r1, r0, #0)
			iprintf ("You've pressed the \"%c\" key\n", (char)(c));
  1002be:	0609      	lsl	r1, r1, #24
  1002c0:	0e09      	lsr	r1, r1, #24
  1002c2:	4809      	ldr	r0, [pc, #36]	(1002e8 <.text+0x2e8>)
  1002c4:	f8d4f000 	bl	100470 <iprintf>
  1002c8:	e7c7      	b	10025a <main+0x36>
  1002ca:	0000      	lsl	r0, r0, #0
  1002cc:	0001      	lsl	r1, r0, #0
  1002ce:	a500      	add	r5, pc, #0	(adr r5,1002d0 <.text+0x2d0>)
  1002d0:	fd08      	second half of BL instruction 0xfd08
  1002d2:	ffff      	second half of BL instruction 0xffff
  1002d4:	0044      	lsl	r4, r0, #1
  1002d6:	4000      	and	r0, r0
  1002d8:	0058      	lsl	r0, r3, #1
  1002da:	0020      	lsl	r0, r4, #0
  1002dc:	2e08      	cmp	r6, #8
  1002de:	0010      	lsl	r0, r2, #0
  1002e0:	2e38      	cmp	r6, #56
  1002e2:	0010      	lsl	r0, r2, #0
  1002e4:	09a0      	lsr	r0, r4, #6
  1002e6:	0020      	lsl	r0, r4, #0
  1002e8:	2e48      	cmp	r6, #72
  1002ea:	0010      	lsl	r0, r2, #0

001002ec <uart0_init>:
void uart0_init (void) {                   /* Initialize Serial Interface */

  /* mt: n.b: uart0 clock must be enabled to use it */

  *AT91C_PIOA_PDR = AT91C_PA5_RXD0 |        /* Enable RxD0 Pin */
  1002ec:	4b07      	ldr	r3, [pc, #28]	(10030c <.text+0x30c>)
  1002ee:	2260      	mov	r2, #96
  1002f0:	601a      	str	r2, [r3, #0]
                    AT91C_PA6_TXD0;         /* Enalbe TxD0 Pin */

  pUSART->US_CR = AT91C_US_RSTRX |          /* Reset Receiver      */
  1002f2:	4b07      	ldr	r3, [pc, #28]	(100310 <.text+0x310>)
  1002f4:	681a      	ldr	r2, [r3, #0]
  1002f6:	23ac      	mov	r3, #172
  1002f8:	6013      	str	r3, [r2, #0]
                  AT91C_US_RSTTX |          /* Reset Transmitter   */
                  AT91C_US_RXDIS |          /* Receiver Disable    */
                  AT91C_US_TXDIS;           /* Transmitter Disable */

  pUSART->US_MR = AT91C_US_USMODE_NORMAL |  /* Normal Mode */
  1002fa:	238c      	mov	r3, #140
  1002fc:	011b      	lsl	r3, r3, #4
  1002fe:	6053      	str	r3, [r2, #4]
                  AT91C_US_CLKS_CLOCK    |  /* Clock = MCK */
                  AT91C_US_CHRL_8_BITS   |  /* 8-bit Data  */
                  AT91C_US_PAR_NONE      |  /* No Parity   */
                  AT91C_US_NBSTOP_1_BIT;    /* 1 Stop Bit  */

  pUSART->US_BRGR = BRD;                    /* Baud Rate Divisor */
  100300:	231a      	mov	r3, #26
  100302:	6213      	str	r3, [r2, #32]

  pUSART->US_CR = AT91C_US_RXEN  |          /* Receiver Enable     */
  100304:	2350      	mov	r3, #80
  100306:	6013      	str	r3, [r2, #0]
                  AT91C_US_TXEN;            /* Transmitter Enable  */
}
  100308:	4770      	bx	lr
  10030a:	0000      	lsl	r0, r0, #0
  10030c:	fffff404 	bl	ffd0530e <PMC_USBDIV+0xcfd0530e>
  100310:	005c      	lsl	r4, r3, #1
  100312:	0020      	lsl	r0, r4, #0

00100314 <uart0_putc>:


int uart0_putc(int ch) 
{
	while (!(pUSART->US_CSR & AT91C_US_TXRDY));   /* Wait for Empty Tx Buffer */
  100314:	4b03      	ldr	r3, [pc, #12]	(100324 <.text+0x324>)
  100316:	681a      	ldr	r2, [r3, #0]
  100318:	6953      	ldr	r3, [r2, #20]
  10031a:	0799      	lsl	r1, r3, #30
  10031c:	d5fc      	bpl	100318 <uart0_putc+0x4>
	return (pUSART->US_THR = ch);                 /* Transmit Character */
  10031e:	61d0      	str	r0, [r2, #28]
  100320:	69d0      	ldr	r0, [r2, #28]
}	
  100322:	4770      	bx	lr
  100324:	005c      	lsl	r4, r3, #1
  100326:	0020      	lsl	r0, r4, #0

00100328 <uart0_kbhit>:

int uart0_putchar (int ch) {                      /* Write Character to Serial Port */

  if (ch == '\n')  {                            /* Check for LF */
    uart0_putc( '\r' );                         /* Output CR */
  }
  return uart0_putc( ch );                     /* Transmit Character */
}

int uart0_puts ( char* s )
{
	int i = 0;
	while ( *s ) {
		uart0_putc( *s++ );
		i++;
	}
	return i;
}

int uart0_prints ( char* s )
{
	int i = 0;
	while ( *s ) {
		uart0_putchar( *s++ );
		i++;
	}
	return i;
}

int uart0_kbhit( void ) /* returns true if character in receive buffer */
{
	if ( pUSART->US_CSR & AT91C_US_RXRDY) {
  100328:	4b02      	ldr	r3, [pc, #8]	(100334 <.text+0x334>)
  10032a:	681b      	ldr	r3, [r3, #0]
  10032c:	6958      	ldr	r0, [r3, #20]
  10032e:	2301      	mov	r3, #1
  100330:	4018      	and	r0, r3
		return 1;
	}
	else {
		return 0;
	}
}
  100332:	4770      	bx	lr
  100334:	005c      	lsl	r4, r3, #1
  100336:	0020      	lsl	r0, r4, #0

00100338 <uart0_getc>:

int uart0_getc ( void )  /* Read Character from Serial Port */
{    
  while (!(pUSART->US_CSR & AT91C_US_RXRDY));   /* Wait for Full Rx Buffer */
  100338:	4b03      	ldr	r3, [pc, #12]	(100348 <.text+0x348>)
  10033a:	681a      	ldr	r2, [r3, #0]
  10033c:	6953      	ldr	r3, [r2, #20]
  10033e:	07d9      	lsl	r1, r3, #31
  100340:	d5fc      	bpl	10033c <uart0_getc+0x4>
  return (pUSART->US_RHR);                      /* Read Character */
  100342:	6990      	ldr	r0, [r2, #24]
}
  100344:	4770      	bx	lr
  100346:	0000      	lsl	r0, r0, #0
  100348:	005c      	lsl	r4, r3, #1
  10034a:	0020      	lsl	r0, r4, #0

0010034c <uart0_puts>:
  10034c:	b570      	push	{r4, r5, r6, lr}
  10034e:	4c08      	ldr	r4, [pc, #32]	(100370 <.text+0x370>)
  100350:	1c05      	mov	r5, r0		(add r5, r0, #0)
  100352:	2000      	mov	r0, #0
  100354:	e006      	b	100364 <uart0_puts+0x18>
  100356:	6822      	ldr	r2, [r4, #0]
  100358:	6953      	ldr	r3, [r2, #20]
  10035a:	079e      	lsl	r6, r3, #30
  10035c:	d5fc      	bpl	100358 <uart0_puts+0xc>
  10035e:	61d1      	str	r1, [r2, #28]
  100360:	69d3      	ldr	r3, [r2, #28]
  100362:	3001      	add	r0, #1
  100364:	5d41      	ldrb	r1, [r0, r5]
  100366:	2900      	cmp	r1, #0
  100368:	d1f5      	bne	100356 <uart0_puts+0xa>
  10036a:	bc70      	pop	{r4, r5, r6}
  10036c:	bc02      	pop	{r1}
  10036e:	4708      	bx	r1
  100370:	005c      	lsl	r4, r3, #1
  100372:	0020      	lsl	r0, r4, #0

00100374 <uart0_putchar>:
  100374:	280a      	cmp	r0, #10
  100376:	d107      	bne	100388 <uart0_putchar+0x14>
  100378:	4b07      	ldr	r3, [pc, #28]	(100398 <.text+0x398>)
  10037a:	681a      	ldr	r2, [r3, #0]
  10037c:	6953      	ldr	r3, [r2, #20]
  10037e:	0799      	lsl	r1, r3, #30
  100380:	d5fc      	bpl	10037c <uart0_putchar+0x8>
  100382:	230d      	mov	r3, #13
  100384:	61d3      	str	r3, [r2, #28]
  100386:	69d3      	ldr	r3, [r2, #28]
  100388:	4b03      	ldr	r3, [pc, #12]	(100398 <.text+0x398>)
  10038a:	681a      	ldr	r2, [r3, #0]
  10038c:	6953      	ldr	r3, [r2, #20]
  10038e:	0799      	lsl	r1, r3, #30
  100390:	d5fc      	bpl	10038c <uart0_putchar+0x18>
  100392:	61d0      	str	r0, [r2, #28]
  100394:	69d0      	ldr	r0, [r2, #28]
  100396:	4770      	bx	lr
  100398:	005c      	lsl	r4, r3, #1
  10039a:	0020      	lsl	r0, r4, #0

0010039c <uart0_prints>:
  10039c:	b530      	push	{r4, r5, lr}
  10039e:	1c05      	mov	r5, r0		(add r5, r0, #0)
  1003a0:	2400      	mov	r4, #0
  1003a2:	e002      	b	1003aa <uart0_prints+0xe>
  1003a4:	ffe6f7ff 	bl	100374 <uart0_putchar>
  1003a8:	3401      	add	r4, #1
  1003aa:	5d60      	ldrb	r0, [r4, r5]
  1003ac:	2800      	cmp	r0, #0
  1003ae:	d1f9      	bne	1003a4 <uart0_prints+0x8>
  1003b0:	1c20      	mov	r0, r4		(add r0, r4, #0)
  1003b2:	bc30      	pop	{r4, r5}
  1003b4:	bc02      	pop	{r1}
  1003b6:	4708      	bx	r1

001003b8 <_close_r>:
    struct _reent *r, 
    int file)
{
	return 0;
}
  1003b8:	2000      	mov	r0, #0
  1003ba:	4770      	bx	lr

001003bc <_lseek_r>:


_off_t _lseek_r(
    struct _reent *r, 
    int file, 
    _off_t ptr, 
    int dir)
{
	return (_off_t)0;	/*  Always indicate we are at file beginning.  */
}
  1003bc:	2000      	mov	r0, #0
  1003be:	4770      	bx	lr

001003c0 <_fstat_r>:


int _fstat_r(
    struct _reent *r, 
    int file, 
    struct stat *st)
{
	/*  Always set as character device.				*/
	st->st_mode = S_IFCHR;
  1003c0:	2380      	mov	r3, #128
  1003c2:	019b      	lsl	r3, r3, #6
	/* assigned to strong type with implicit 	*/
	/* signed/unsigned conversion.  Required by 	*/
	/* newlib.					*/

	return 0;
}
  1003c4:	2000      	mov	r0, #0
  1003c6:	6053      	str	r3, [r2, #4]
  1003c8:	4770      	bx	lr
	...

001003cc <isatty>:


int isatty(int file); /* avoid warning */

int isatty(int file)
{
	return 1;
}
  1003cc:	2001      	mov	r0, #1
  1003ce:	4770      	bx	lr

001003d0 <_sbrk_r>:


#if 0
static void _exit (int n) {
label:  goto label; /* endless loop */
}
#endif 


/* "malloc clue function" from newlib-lpc/Keil-Demo/"generic" */

/**** Locally used variables. ****/
// mt: "cleaner": extern char* end;
extern char end[];              /*  end is set in the linker command 	*/
				/* file and is the end of statically 	*/
				/* allocated data (thus start of heap).	*/

static char *heap_ptr;		/* Points to current end of the heap.	*/

/************************** _sbrk_r *************************************
 * Support function. Adjusts end of heap to provide more memory to
 * memory allocator. Simple and dumb with no sanity checks.

 *  struct _reent *r -- re-entrancy structure, used by newlib to
 *                      support multiple threads of operation.
 *  ptrdiff_t nbytes -- number of bytes to add.
 *                      Returns pointer to start of new heap area.
 *
 *  Note:  This implementation is not thread safe (despite taking a
 *         _reent structure as a parameter).
 *         Since _s_r is not used in the current implementation, 
 *         the following messages must be suppressed.
 */
void * _sbrk_r(
    struct _reent *_s_r, 
    ptrdiff_t nbytes)
{
	char  *base;		/*  errno should be set to  ENOMEM on error  */

	if (!heap_ptr) {	/*  Initialize if first time through.  */
  1003d0:	4a04      	ldr	r2, [pc, #16]	(1003e4 <.text+0x3e4>)
  1003d2:	6813      	ldr	r3, [r2, #0]
  1003d4:	2b00      	cmp	r3, #0
  1003d6:	d101      	bne	1003dc <_sbrk_r+0xc>
		heap_ptr = end;
  1003d8:	4b03      	ldr	r3, [pc, #12]	(1003e8 <.text+0x3e8>)
  1003da:	6013      	str	r3, [r2, #0]
	}
	base = heap_ptr;	/*  Point to end of heap.  */
  1003dc:	6810      	ldr	r0, [r2, #0]
	heap_ptr += nbytes;	/*  Increase heap.  */
  1003de:	1843      	add	r3, r0, r1
  1003e0:	6013      	str	r3, [r2, #0]
	
	return base;		/*  Return pointer to start of new heap area.  */
}
  1003e2:	4770      	bx	lr
  1003e4:	095c      	lsr	r4, r3, #5
  1003e6:	0020      	lsl	r0, r4, #0
  1003e8:	09a4      	lsr	r4, r4, #6
  1003ea:	0020      	lsl	r0, r4, #0

001003ec <_write_r>:
  1003ec:	b570      	push	{r4, r5, r6, lr}
  1003ee:	1c15      	mov	r5, r2		(add r5, r2, #0)
  1003f0:	1c1e      	mov	r6, r3		(add r6, r3, #0)
  1003f2:	2400      	mov	r4, #0
  1003f4:	e009      	b	10040a <_write_r+0x1e>
  1003f6:	5d63      	ldrb	r3, [r4, r5]
  1003f8:	2b0a      	cmp	r3, #10
  1003fa:	d102      	bne	100402 <_write_r+0x16>
  1003fc:	200d      	mov	r0, #13
  1003fe:	ff89f7ff 	bl	100314 <uart0_putc>
  100402:	5d60      	ldrb	r0, [r4, r5]
  100404:	ff86f7ff 	bl	100314 <uart0_putc>
  100408:	3401      	add	r4, #1
  10040a:	42b4      	cmp	r4, r6
  10040c:	d1f3      	bne	1003f6 <_write_r+0xa>
  10040e:	1c20      	mov	r0, r4		(add r0, r4, #0)
  100410:	bc70      	pop	{r4, r5, r6}
  100412:	bc02      	pop	{r1}
  100414:	4708      	bx	r1
	...

00100418 <_read_r>:
  100418:	b5f0      	push	{r4, r5, r6, r7, lr}
  10041a:	1c16      	mov	r6, r2		(add r6, r2, #0)
  10041c:	1c1f      	mov	r7, r3		(add r7, r3, #0)
  10041e:	2400      	mov	r4, #0
  100420:	e010      	b	100444 <_read_r+0x2c>
  100422:	2300      	mov	r3, #0
  100424:	702b      	strb	r3, [r5, #0]
  100426:	e010      	b	10044a <_read_r+0x32>
  100428:	ff7ef7ff 	bl	100328 <uart0_kbhit>
  10042c:	2800      	cmp	r0, #0
  10042e:	d0fb      	beq	100428 <_read_r+0x10>
  100430:	ff82f7ff 	bl	100338 <uart0_getc>
  100434:	0600      	lsl	r0, r0, #24
  100436:	0e00      	lsr	r0, r0, #24
  100438:	280d      	cmp	r0, #13
  10043a:	d0f2      	beq	100422 <_read_r+0xa>
  10043c:	55a0      	strb	r0, [r4, r6]
  10043e:	ff69f7ff 	bl	100314 <uart0_putc>
  100442:	3401      	add	r4, #1
  100444:	1935      	add	r5, r6, r4
  100446:	42bc      	cmp	r4, r7
  100448:	d1ee      	bne	100428 <_read_r+0x10>
  10044a:	1b38      	sub	r0, r7, r4
  10044c:	bcf0      	pop	{r4, r5, r6, r7}
  10044e:	bc02      	pop	{r1}
  100450:	4708      	bx	r1
  100452:	46c0      	nop			(mov r8, r8)

00100454 <_iprintf_r>:
  100454:	b40e      	push	{r1, r2, r3}
  100456:	b500      	push	{lr}
  100458:	b081      	sub	sp, #4
  10045a:	ab02      	add	r3, sp, #8
  10045c:	cb04      	ldmia	r3!,{r2}
  10045e:	6881      	ldr	r1, [r0, #8]
  100460:	9300      	str	r3, [sp, #0]
  100462:	f827f000 	bl	1004b4 <_vfiprintf_r>
  100466:	b001      	add	sp, #4
  100468:	bc08      	pop	{r3}
  10046a:	b003      	add	sp, #12
  10046c:	4718      	bx	r3
	...

00100470 <iprintf>:
  100470:	b40f      	push	{r0, r1, r2, r3}
  100472:	b500      	push	{lr}
  100474:	4b06      	ldr	r3, [pc, #24]	(100490 <.text+0x490>)
  100476:	b081      	sub	sp, #4
  100478:	aa02      	add	r2, sp, #8
  10047a:	681b      	ldr	r3, [r3, #0]
  10047c:	ca02      	ldmia	r2!,{r1}
  10047e:	6898      	ldr	r0, [r3, #8]
  100480:	9200      	str	r2, [sp, #0]
  100482:	fe3ff000 	bl	101104 <vfiprintf>
  100486:	b001      	add	sp, #4
  100488:	bc08      	pop	{r3}
  10048a:	b004      	add	sp, #16
  10048c:	4718      	bx	r3
  10048e:	0000      	lsl	r0, r0, #0
  100490:	0060      	lsl	r0, r4, #1
  100492:	0020      	lsl	r0, r4, #0

00100494 <__sprint>:
  100494:	b510      	push	{r4, lr}
  100496:	688b      	ldr	r3, [r1, #8]
  100498:	1c0c      	mov	r4, r1		(add r4, r1, #0)
  10049a:	2b00      	cmp	r3, #0
  10049c:	d104      	bne	1004a8 <__sprint+0x14>
  10049e:	604b      	str	r3, [r1, #4]
  1004a0:	2000      	mov	r0, #0
  1004a2:	bc10      	pop	{r4}
  1004a4:	bc02      	pop	{r1}
  1004a6:	4708      	bx	r1
  1004a8:	faf6f001 	bl	101a98 <__sfvwrite>
  1004ac:	2300      	mov	r3, #0
  1004ae:	60a3      	str	r3, [r4, #8]
  1004b0:	6063      	str	r3, [r4, #4]
  1004b2:	e7f6      	b	1004a2 <__sprint+0xe>

001004b4 <_vfiprintf_r>:
  1004b4:	b5f0      	push	{r4, r5, r6, r7, lr}
  1004b6:	465f      	mov	r7, fp
  1004b8:	4656      	mov	r6, sl
  1004ba:	464d      	mov	r5, r9
  1004bc:	4644      	mov	r4, r8
  1004be:	b4f0      	push	{r4, r5, r6, r7}
  1004c0:	4cb0      	ldr	r4, [pc, #704]	(100784 <.text+0x784>)
  1004c2:	44a5      	add	sp, r4
  1004c4:	9001      	str	r0, [sp, #4]
  1004c6:	4688      	mov	r8, r1
  1004c8:	1c15      	mov	r5, r2		(add r5, r2, #0)
  1004ca:	469a      	mov	sl, r3
  1004cc:	2800      	cmp	r0, #0
  1004ce:	d003      	beq	1004d8 <_vfiprintf_r+0x24>
  1004d0:	6b83      	ldr	r3, [r0, #56]
  1004d2:	2b00      	cmp	r3, #0
  1004d4:	d100      	bne	1004d8 <_vfiprintf_r+0x24>
  1004d6:	e26e      	b	1009b6 <.text+0x9b6>
  1004d8:	4640      	mov	r0, r8
  1004da:	8982      	ldrh	r2, [r0, #12]
  1004dc:	0711      	lsl	r1, r2, #28
  1004de:	d400      	bmi	1004e2 <_vfiprintf_r+0x2e>
  1004e0:	e27c      	b	1009dc <.text+0x9dc>
  1004e2:	6903      	ldr	r3, [r0, #16]
  1004e4:	2b00      	cmp	r3, #0
  1004e6:	d100      	bne	1004ea <_vfiprintf_r+0x36>
  1004e8:	e278      	b	1009dc <.text+0x9dc>
  1004ea:	231a      	mov	r3, #26
  1004ec:	4013      	and	r3, r2
  1004ee:	2b0a      	cmp	r3, #10
  1004f0:	d14c      	bne	10058c <_vfiprintf_r+0xd8>
  1004f2:	4640      	mov	r0, r8
  1004f4:	210e      	mov	r1, #14
  1004f6:	5e43      	ldrsh	r3, [r0, r1]
  1004f8:	2b00      	cmp	r3, #0
  1004fa:	db47      	blt	10058c <_vfiprintf_r+0xd8>
  1004fc:	2486      	mov	r4, #134
  1004fe:	2302      	mov	r3, #2
  100500:	00e4      	lsl	r4, r4, #3
  100502:	446c      	add	r4, sp
  100504:	439a      	bic	r2, r3
  100506:	81a2      	strh	r2, [r4, #12]
  100508:	89c3      	ldrh	r3, [r0, #14]
  10050a:	4a9f      	ldr	r2, [pc, #636]	(100788 <.text+0x788>)
  10050c:	81e3      	strh	r3, [r4, #14]
  10050e:	69c3      	ldr	r3, [r0, #28]
  100510:	446a      	add	r2, sp
  100512:	6013      	str	r3, [r2, #0]
  100514:	6a43      	ldr	r3, [r0, #36]
  100516:	489d      	ldr	r0, [pc, #628]	(10078c <.text+0x78c>)
  100518:	2288      	mov	r2, #136
  10051a:	4468      	add	r0, sp
  10051c:	00d2      	lsl	r2, r2, #3
  10051e:	6003      	str	r3, [r0, #0]
  100520:	446a      	add	r2, sp
  100522:	ab0c      	add	r3, sp, #48
  100524:	2087      	mov	r0, #135
  100526:	499a      	ldr	r1, [pc, #616]	(100790 <.text+0x790>)
  100528:	6013      	str	r3, [r2, #0]
  10052a:	6023      	str	r3, [r4, #0]
  10052c:	00c0      	lsl	r0, r0, #3
  10052e:	2380      	mov	r3, #128
  100530:	2289      	mov	r2, #137
  100532:	00db      	lsl	r3, r3, #3
  100534:	4468      	add	r0, sp
  100536:	4469      	add	r1, sp
  100538:	00d2      	lsl	r2, r2, #3
  10053a:	6003      	str	r3, [r0, #0]
  10053c:	600b      	str	r3, [r1, #0]
  10053e:	446a      	add	r2, sp
  100540:	2300      	mov	r3, #0
  100542:	6013      	str	r3, [r2, #0]
  100544:	9801      	ldr	r0, [sp, #4]
  100546:	1c21      	mov	r1, r4		(add r1, r4, #0)
  100548:	1c2a      	mov	r2, r5		(add r2, r5, #0)
  10054a:	4653      	mov	r3, sl
  10054c:	ffb2f7ff 	bl	1004b4 <_vfiprintf_r>
  100550:	9005      	str	r0, [sp, #20]
  100552:	2800      	cmp	r0, #0
  100554:	db05      	blt	100562 <_vfiprintf_r+0xae>
  100556:	1c20      	mov	r0, r4		(add r0, r4, #0)
  100558:	f840f001 	bl	1015dc <fflush>
  10055c:	2800      	cmp	r0, #0
  10055e:	d000      	beq	100562 <_vfiprintf_r+0xae>
  100560:	e255      	b	100a0e <.text+0xa0e>
  100562:	89a3      	ldrh	r3, [r4, #12]
  100564:	0658      	lsl	r0, r3, #25
  100566:	d505      	bpl	100574 <_vfiprintf_r+0xc0>
  100568:	4641      	mov	r1, r8
  10056a:	898b      	ldrh	r3, [r1, #12]
  10056c:	2240      	mov	r2, #64
  10056e:	4313      	orr	r3, r2
  100570:	4642      	mov	r2, r8
  100572:	8193      	strh	r3, [r2, #12]
  100574:	23a3      	mov	r3, #163
  100576:	9805      	ldr	r0, [sp, #20]
  100578:	00db      	lsl	r3, r3, #3
  10057a:	449d      	add	sp, r3
  10057c:	bc3c      	pop	{r2, r3, r4, r5}
  10057e:	4690      	mov	r8, r2
  100580:	4699      	mov	r9, r3
  100582:	46a2      	mov	sl, r4
  100584:	46ab      	mov	fp, r5
  100586:	bcf0      	pop	{r4, r5, r6, r7}
  100588:	bc02      	pop	{r1}
  10058a:	4708      	bx	r1
  10058c:	4b81      	ldr	r3, [pc, #516]	(100794 <.text+0x794>)
  10058e:	4882      	ldr	r0, [pc, #520]	(100798 <.text+0x798>)
  100590:	4982      	ldr	r1, [pc, #520]	(10079c <.text+0x79c>)
  100592:	446b      	add	r3, sp
  100594:	4468      	add	r0, sp
  100596:	229f      	mov	r2, #159
  100598:	4469      	add	r1, sp
  10059a:	6003      	str	r3, [r0, #0]
  10059c:	00d2      	lsl	r2, r2, #3
  10059e:	2000      	mov	r0, #0
  1005a0:	6008      	str	r0, [r1, #0]
  1005a2:	446a      	add	r2, sp
  1005a4:	2100      	mov	r1, #0
  1005a6:	6011      	str	r1, [r2, #0]
  1005a8:	9105      	str	r1, [sp, #20]
  1005aa:	9109      	str	r1, [sp, #36]
  1005ac:	910a      	str	r1, [sp, #40]
  1005ae:	1c2f      	mov	r7, r5		(add r7, r5, #0)
  1005b0:	1c1e      	mov	r6, r3		(add r6, r3, #0)
  1005b2:	783a      	ldrb	r2, [r7, #0]
  1005b4:	2a00      	cmp	r2, #0
  1005b6:	d100      	bne	1005ba <_vfiprintf_r+0x106>
  1005b8:	e2ca      	b	100b50 <.text+0xb50>
  1005ba:	2a25      	cmp	r2, #37
  1005bc:	d020      	beq	100600 <_vfiprintf_r+0x14c>
  1005be:	1c3c      	mov	r4, r7		(add r4, r7, #0)
  1005c0:	e001      	b	1005c6 <_vfiprintf_r+0x112>
  1005c2:	2b25      	cmp	r3, #37
  1005c4:	d003      	beq	1005ce <_vfiprintf_r+0x11a>
  1005c6:	3401      	add	r4, #1
  1005c8:	7823      	ldrb	r3, [r4, #0]
  1005ca:	2b00      	cmp	r3, #0
  1005cc:	d1f9      	bne	1005c2 <_vfiprintf_r+0x10e>
  1005ce:	1be5      	sub	r5, r4, r7
  1005d0:	2d00      	cmp	r5, #0
  1005d2:	d013      	beq	1005fc <_vfiprintf_r+0x148>
  1005d4:	4971      	ldr	r1, [pc, #452]	(10079c <.text+0x79c>)
  1005d6:	4469      	add	r1, sp
  1005d8:	6808      	ldr	r0, [r1, #0]
  1005da:	229f      	mov	r2, #159
  1005dc:	00d2      	lsl	r2, r2, #3
  1005de:	446a      	add	r2, sp
  1005e0:	1828      	add	r0, r5, r0
  1005e2:	6008      	str	r0, [r1, #0]
  1005e4:	6811      	ldr	r1, [r2, #0]
  1005e6:	3101      	add	r1, #1
  1005e8:	6037      	str	r7, [r6, #0]
  1005ea:	6075      	str	r5, [r6, #4]
  1005ec:	6011      	str	r1, [r2, #0]
  1005ee:	2907      	cmp	r1, #7
  1005f0:	dd00      	ble	1005f4 <_vfiprintf_r+0x140>
  1005f2:	e282      	b	100afa <.text+0xafa>
  1005f4:	3608      	add	r6, #8
  1005f6:	9b05      	ldr	r3, [sp, #20]
  1005f8:	195b      	add	r3, r3, r5
  1005fa:	9305      	str	r3, [sp, #20]
  1005fc:	7822      	ldrb	r2, [r4, #0]
  1005fe:	1c27      	mov	r7, r4		(add r7, r4, #0)
  100600:	2a00      	cmp	r2, #0
  100602:	d100      	bne	100606 <_vfiprintf_r+0x152>
  100604:	e2a4      	b	100b50 <.text+0xb50>
  100606:	4866      	ldr	r0, [pc, #408]	(1007a0 <.text+0x7a0>)
  100608:	2101      	mov	r1, #1
  10060a:	2300      	mov	r3, #0
  10060c:	4468      	add	r0, sp
  10060e:	4249      	neg	r1, r1
  100610:	7003      	strb	r3, [r0, #0]
  100612:	9304      	str	r3, [sp, #16]
  100614:	9306      	str	r3, [sp, #24]
  100616:	9107      	str	r1, [sp, #28]
  100618:	3701      	add	r7, #1
  10061a:	783a      	ldrb	r2, [r7, #0]
  10061c:	4691      	mov	r9, r2
  10061e:	3701      	add	r7, #1
  100620:	464b      	mov	r3, r9
  100622:	3b20      	sub	r3, #32
  100624:	2b58      	cmp	r3, #88
  100626:	d803      	bhi	100630 <_vfiprintf_r+0x17c>
  100628:	4a5e      	ldr	r2, [pc, #376]	(1007a4 <.text+0x7a4>)
  10062a:	009b      	lsl	r3, r3, #2
  10062c:	589b      	ldr	r3, [r3, r2]
  10062e:	469f      	mov	pc, r3
  100630:	464a      	mov	r2, r9
  100632:	2a00      	cmp	r2, #0
  100634:	d100      	bne	100638 <_vfiprintf_r+0x184>
  100636:	e28b      	b	100b50 <.text+0xb50>
  100638:	4d5b      	ldr	r5, [pc, #364]	(1007a8 <.text+0x7a8>)
  10063a:	4859      	ldr	r0, [pc, #356]	(1007a0 <.text+0x7a0>)
  10063c:	446d      	add	r5, sp
  10063e:	4468      	add	r0, sp
  100640:	4651      	mov	r1, sl
  100642:	2300      	mov	r3, #0
  100644:	7003      	strb	r3, [r0, #0]
  100646:	702a      	strb	r2, [r5, #0]
  100648:	2001      	mov	r0, #1
  10064a:	910b      	str	r1, [sp, #44]
  10064c:	9503      	str	r5, [sp, #12]
  10064e:	4683      	mov	fp, r0
  100650:	4682      	mov	sl, r0
  100652:	2100      	mov	r1, #0
  100654:	9108      	str	r1, [sp, #32]
  100656:	9b04      	ldr	r3, [sp, #16]
  100658:	079b      	lsl	r3, r3, #30
  10065a:	d501      	bpl	100660 <_vfiprintf_r+0x1ac>
  10065c:	2002      	mov	r0, #2
  10065e:	4482      	add	sl, r0
  100660:	9904      	ldr	r1, [sp, #16]
  100662:	2384      	mov	r3, #132
  100664:	4019      	and	r1, r3
  100666:	9102      	str	r1, [sp, #8]
  100668:	d162      	bne	100730 <_vfiprintf_r+0x27c>
  10066a:	9a06      	ldr	r2, [sp, #24]
  10066c:	4653      	mov	r3, sl
  10066e:	1ad4      	sub	r4, r2, r3
  100670:	2c00      	cmp	r4, #0
  100672:	dd5d      	ble	100730 <_vfiprintf_r+0x27c>
  100674:	2c10      	cmp	r4, #16
  100676:	dc01      	bgt	10067c <_vfiprintf_r+0x1c8>
  100678:	fc3af000 	bl	100ef0 <.text+0xef0>
  10067c:	4947      	ldr	r1, [pc, #284]	(10079c <.text+0x79c>)
  10067e:	229f      	mov	r2, #159
  100680:	00d2      	lsl	r2, r2, #3
  100682:	4469      	add	r1, sp
  100684:	446a      	add	r2, sp
  100686:	6808      	ldr	r0, [r1, #0]
  100688:	4d48      	ldr	r5, [pc, #288]	(1007ac <.text+0x7ac>)
  10068a:	6811      	ldr	r1, [r2, #0]
  10068c:	e003      	b	100696 <_vfiprintf_r+0x1e2>
  10068e:	3c10      	sub	r4, #16
  100690:	3608      	add	r6, #8
  100692:	2c10      	cmp	r4, #16
  100694:	dd21      	ble	1006da <_vfiprintf_r+0x226>
  100696:	2310      	mov	r3, #16
  100698:	6073      	str	r3, [r6, #4]
  10069a:	229f      	mov	r2, #159
  10069c:	4b3f      	ldr	r3, [pc, #252]	(10079c <.text+0x79c>)
  10069e:	00d2      	lsl	r2, r2, #3
  1006a0:	3010      	add	r0, #16
  1006a2:	446b      	add	r3, sp
  1006a4:	3101      	add	r1, #1
  1006a6:	446a      	add	r2, sp
  1006a8:	6035      	str	r5, [r6, #0]
  1006aa:	6018      	str	r0, [r3, #0]
  1006ac:	6011      	str	r1, [r2, #0]
  1006ae:	2907      	cmp	r1, #7
  1006b0:	dded      	ble	10068e <_vfiprintf_r+0x1da>
  1006b2:	4939      	ldr	r1, [pc, #228]	(100798 <.text+0x798>)
  1006b4:	4640      	mov	r0, r8
  1006b6:	4469      	add	r1, sp
  1006b8:	feecf7ff 	bl	100494 <__sprint>
  1006bc:	2800      	cmp	r0, #0
  1006be:	d000      	beq	1006c2 <_vfiprintf_r+0x20e>
  1006c0:	e129      	b	100916 <.text+0x916>
  1006c2:	4b36      	ldr	r3, [pc, #216]	(10079c <.text+0x79c>)
  1006c4:	229f      	mov	r2, #159
  1006c6:	4e33      	ldr	r6, [pc, #204]	(100794 <.text+0x794>)
  1006c8:	00d2      	lsl	r2, r2, #3
  1006ca:	446b      	add	r3, sp
  1006cc:	446a      	add	r2, sp
  1006ce:	3c10      	sub	r4, #16
  1006d0:	446e      	add	r6, sp
  1006d2:	6818      	ldr	r0, [r3, #0]
  1006d4:	6811      	ldr	r1, [r2, #0]
  1006d6:	2c10      	cmp	r4, #16
  1006d8:	dcdd      	bgt	100696 <_vfiprintf_r+0x1e2>
  1006da:	4b30      	ldr	r3, [pc, #192]	(10079c <.text+0x79c>)
  1006dc:	229f      	mov	r2, #159
  1006de:	00d2      	lsl	r2, r2, #3
  1006e0:	1820      	add	r0, r4, r0
  1006e2:	446b      	add	r3, sp
  1006e4:	3101      	add	r1, #1
  1006e6:	446a      	add	r2, sp
  1006e8:	6035      	str	r5, [r6, #0]
  1006ea:	6074      	str	r4, [r6, #4]
  1006ec:	6018      	str	r0, [r3, #0]
  1006ee:	6011      	str	r1, [r2, #0]
  1006f0:	2907      	cmp	r1, #7
  1006f2:	dc13      	bgt	10071c <_vfiprintf_r+0x268>
  1006f4:	4a2a      	ldr	r2, [pc, #168]	(1007a0 <.text+0x7a0>)
  1006f6:	446a      	add	r2, sp
  1006f8:	7813      	ldrb	r3, [r2, #0]
  1006fa:	3608      	add	r6, #8
  1006fc:	2b00      	cmp	r3, #0
  1006fe:	d123      	bne	100748 <_vfiprintf_r+0x294>
  100700:	9b04      	ldr	r3, [sp, #16]
  100702:	2502      	mov	r5, #2
  100704:	422b      	tst	r3, r5
  100706:	d02f      	beq	100768 <_vfiprintf_r+0x2b4>
  100708:	4b29      	ldr	r3, [pc, #164]	(1007b0 <.text+0x7b0>)
  10070a:	2230      	mov	r2, #48
  10070c:	446b      	add	r3, sp
  10070e:	701a      	strb	r2, [r3, #0]
  100710:	3002      	add	r0, #2
  100712:	464a      	mov	r2, r9
  100714:	705a      	strb	r2, [r3, #1]
  100716:	6033      	str	r3, [r6, #0]
  100718:	6075      	str	r5, [r6, #4]
  10071a:	e019      	b	100750 <_vfiprintf_r+0x29c>
  10071c:	491e      	ldr	r1, [pc, #120]	(100798 <.text+0x798>)
  10071e:	4640      	mov	r0, r8
  100720:	4469      	add	r1, sp
  100722:	feb7f7ff 	bl	100494 <__sprint>
  100726:	2800      	cmp	r0, #0
  100728:	d000      	beq	10072c <_vfiprintf_r+0x278>
  10072a:	e0f4      	b	100916 <.text+0x916>
  10072c:	4e19      	ldr	r6, [pc, #100]	(100794 <.text+0x794>)
  10072e:	446e      	add	r6, sp
  100730:	229f      	mov	r2, #159
  100732:	00d2      	lsl	r2, r2, #3
  100734:	446a      	add	r2, sp
  100736:	4b19      	ldr	r3, [pc, #100]	(10079c <.text+0x79c>)
  100738:	6811      	ldr	r1, [r2, #0]
  10073a:	4a19      	ldr	r2, [pc, #100]	(1007a0 <.text+0x7a0>)
  10073c:	446b      	add	r3, sp
  10073e:	446a      	add	r2, sp
  100740:	6818      	ldr	r0, [r3, #0]
  100742:	7813      	ldrb	r3, [r2, #0]
  100744:	2b00      	cmp	r3, #0
  100746:	d0db      	beq	100700 <_vfiprintf_r+0x24c>
  100748:	2301      	mov	r3, #1
  10074a:	6032      	str	r2, [r6, #0]
  10074c:	6073      	str	r3, [r6, #4]
  10074e:	3001      	add	r0, #1
  100750:	4b12      	ldr	r3, [pc, #72]	(10079c <.text+0x79c>)
  100752:	229f      	mov	r2, #159
  100754:	00d2      	lsl	r2, r2, #3
  100756:	446b      	add	r3, sp
  100758:	3101      	add	r1, #1
  10075a:	446a      	add	r2, sp
  10075c:	6018      	str	r0, [r3, #0]
  10075e:	6011      	str	r1, [r2, #0]
  100760:	2907      	cmp	r1, #7
  100762:	dd00      	ble	100766 <_vfiprintf_r+0x2b2>
  100764:	e142      	b	1009ec <.text+0x9ec>
  100766:	3608      	add	r6, #8
  100768:	9b02      	ldr	r3, [sp, #8]
  10076a:	2b80      	cmp	r3, #128
  10076c:	d100      	bne	100770 <_vfiprintf_r+0x2bc>
  10076e:	e0e2      	b	100936 <.text+0x936>
  100770:	9b08      	ldr	r3, [sp, #32]
  100772:	465a      	mov	r2, fp
  100774:	1a9c      	sub	r4, r3, r2
  100776:	2c00      	cmp	r4, #0
  100778:	dd53      	ble	100822 <.text+0x822>
  10077a:	2c10      	cmp	r4, #16
  10077c:	dc00      	bgt	100780 <_vfiprintf_r+0x2cc>
  10077e:	e39b      	b	100eb8 <.text+0xeb8>
  100780:	4d0c      	ldr	r5, [pc, #48]	(1007b4 <.text+0x7b4>)
  100782:	e01d      	b	1007c0 <.text+0x7c0>
  100784:	fae8      	second half of BL instruction 0xfae8
  100786:	ffff      	second half of BL instruction 0xffff
  100788:	044c      	lsl	r4, r1, #17
  10078a:	0000      	lsl	r0, r0, #0
  10078c:	0454      	lsl	r4, r2, #17
  10078e:	0000      	lsl	r0, r0, #0
  100790:	0444      	lsl	r4, r0, #17
  100792:	0000      	lsl	r0, r0, #0
  100794:	048c      	lsl	r4, r1, #18
  100796:	0000      	lsl	r0, r0, #0
  100798:	04f4      	lsl	r4, r6, #19
  10079a:	0000      	lsl	r0, r0, #0
  10079c:	04fc      	lsl	r4, r7, #19
  10079e:	0000      	lsl	r0, r0, #0
  1007a0:	0517      	lsl	r7, r2, #20
  1007a2:	0000      	lsl	r0, r0, #0
  1007a4:	2eb4      	cmp	r6, #180
  1007a6:	0010      	lsl	r0, r2, #0
  1007a8:	04cc      	lsl	r4, r1, #19
  1007aa:	0000      	lsl	r0, r0, #0
  1007ac:	3028      	add	r0, #40
  1007ae:	0010      	lsl	r0, r2, #0
  1007b0:	0515      	lsl	r5, r2, #20
  1007b2:	0000      	lsl	r0, r0, #0
  1007b4:	3018      	add	r0, #24
  1007b6:	0010      	lsl	r0, r2, #0
  1007b8:	3c10      	sub	r4, #16
  1007ba:	3608      	add	r6, #8
  1007bc:	2c10      	cmp	r4, #16
  1007be:	dd21      	ble	100804 <.text+0x804>
  1007c0:	2310      	mov	r3, #16
  1007c2:	6073      	str	r3, [r6, #4]
  1007c4:	229f      	mov	r2, #159
  1007c6:	4bd2      	ldr	r3, [pc, #840]	(100b10 <.text+0xb10>)
  1007c8:	00d2      	lsl	r2, r2, #3
  1007ca:	3010      	add	r0, #16
  1007cc:	446b      	add	r3, sp
  1007ce:	3101      	add	r1, #1
  1007d0:	446a      	add	r2, sp
  1007d2:	6035      	str	r5, [r6, #0]
  1007d4:	6018      	str	r0, [r3, #0]
  1007d6:	6011      	str	r1, [r2, #0]
  1007d8:	2907      	cmp	r1, #7
  1007da:	dded      	ble	1007b8 <.text+0x7b8>
  1007dc:	49cd      	ldr	r1, [pc, #820]	(100b14 <.text+0xb14>)
  1007de:	4640      	mov	r0, r8
  1007e0:	4469      	add	r1, sp
  1007e2:	fe57f7ff 	bl	100494 <__sprint>
  1007e6:	2800      	cmp	r0, #0
  1007e8:	d000      	beq	1007ec <.text+0x7ec>
  1007ea:	e094      	b	100916 <.text+0x916>
  1007ec:	4bc8      	ldr	r3, [pc, #800]	(100b10 <.text+0xb10>)
  1007ee:	229f      	mov	r2, #159
  1007f0:	4ec9      	ldr	r6, [pc, #804]	(100b18 <.text+0xb18>)
  1007f2:	00d2      	lsl	r2, r2, #3
  1007f4:	446b      	add	r3, sp
  1007f6:	446a      	add	r2, sp
  1007f8:	3c10      	sub	r4, #16
  1007fa:	446e      	add	r6, sp
  1007fc:	6818      	ldr	r0, [r3, #0]
  1007fe:	6811      	ldr	r1, [r2, #0]
  100800:	2c10      	cmp	r4, #16
  100802:	dcdd      	bgt	1007c0 <.text+0x7c0>
  100804:	4bc2      	ldr	r3, [pc, #776]	(100b10 <.text+0xb10>)
  100806:	229f      	mov	r2, #159
  100808:	00d2      	lsl	r2, r2, #3
  10080a:	1900      	add	r0, r0, r4
  10080c:	446b      	add	r3, sp
  10080e:	3101      	add	r1, #1
  100810:	446a      	add	r2, sp
  100812:	6035      	str	r5, [r6, #0]
  100814:	6074      	str	r4, [r6, #4]
  100816:	6018      	str	r0, [r3, #0]
  100818:	6011      	str	r1, [r2, #0]
  10081a:	2907      	cmp	r1, #7
  10081c:	dd00      	ble	100820 <.text+0x820>
  10081e:	e185      	b	100b2c <.text+0xb2c>
  100820:	3608      	add	r6, #8
  100822:	9b03      	ldr	r3, [sp, #12]
  100824:	465a      	mov	r2, fp
  100826:	6033      	str	r3, [r6, #0]
  100828:	6072      	str	r2, [r6, #4]
  10082a:	4bb9      	ldr	r3, [pc, #740]	(100b10 <.text+0xb10>)
  10082c:	229f      	mov	r2, #159
  10082e:	00d2      	lsl	r2, r2, #3
  100830:	4458      	add	r0, fp
  100832:	446b      	add	r3, sp
  100834:	3101      	add	r1, #1
  100836:	446a      	add	r2, sp
  100838:	6018      	str	r0, [r3, #0]
  10083a:	6011      	str	r1, [r2, #0]
  10083c:	2907      	cmp	r1, #7
  10083e:	dd00      	ble	100842 <.text+0x842>
  100840:	e0bf      	b	1009c2 <.text+0x9c2>
  100842:	1c32      	mov	r2, r6		(add r2, r6, #0)
  100844:	3208      	add	r2, #8
  100846:	9904      	ldr	r1, [sp, #16]
  100848:	0749      	lsl	r1, r1, #29
  10084a:	d540      	bpl	1008ce <.text+0x8ce>
  10084c:	9b06      	ldr	r3, [sp, #24]
  10084e:	4651      	mov	r1, sl
  100850:	1a5c      	sub	r4, r3, r1
  100852:	2c00      	cmp	r4, #0
  100854:	dd3b      	ble	1008ce <.text+0x8ce>
  100856:	2c10      	cmp	r4, #16
  100858:	dc00      	bgt	10085c <.text+0x85c>
  10085a:	e386      	b	100f6a <.text+0xf6a>
  10085c:	239f      	mov	r3, #159
  10085e:	00db      	lsl	r3, r3, #3
  100860:	446b      	add	r3, sp
  100862:	6819      	ldr	r1, [r3, #0]
  100864:	4dad      	ldr	r5, [pc, #692]	(100b1c <.text+0xb1c>)
  100866:	e003      	b	100870 <.text+0x870>
  100868:	3c10      	sub	r4, #16
  10086a:	3208      	add	r2, #8
  10086c:	2c10      	cmp	r4, #16
  10086e:	dd20      	ble	1008b2 <.text+0x8b2>
  100870:	2310      	mov	r3, #16
  100872:	6053      	str	r3, [r2, #4]
  100874:	4ba6      	ldr	r3, [pc, #664]	(100b10 <.text+0xb10>)
  100876:	3010      	add	r0, #16
  100878:	446b      	add	r3, sp
  10087a:	6018      	str	r0, [r3, #0]
  10087c:	239f      	mov	r3, #159
  10087e:	00db      	lsl	r3, r3, #3
  100880:	3101      	add	r1, #1
  100882:	446b      	add	r3, sp
  100884:	6015      	str	r5, [r2, #0]
  100886:	6019      	str	r1, [r3, #0]
  100888:	2907      	cmp	r1, #7
  10088a:	dded      	ble	100868 <.text+0x868>
  10088c:	49a1      	ldr	r1, [pc, #644]	(100b14 <.text+0xb14>)
  10088e:	4640      	mov	r0, r8
  100890:	4469      	add	r1, sp
  100892:	fdfff7ff 	bl	100494 <__sprint>
  100896:	2800      	cmp	r0, #0
  100898:	d13d      	bne	100916 <.text+0x916>
  10089a:	499d      	ldr	r1, [pc, #628]	(100b10 <.text+0xb10>)
  10089c:	239f      	mov	r3, #159
  10089e:	4a9e      	ldr	r2, [pc, #632]	(100b18 <.text+0xb18>)
  1008a0:	00db      	lsl	r3, r3, #3
  1008a2:	4469      	add	r1, sp
  1008a4:	446b      	add	r3, sp
  1008a6:	3c10      	sub	r4, #16
  1008a8:	6808      	ldr	r0, [r1, #0]
  1008aa:	446a      	add	r2, sp
  1008ac:	6819      	ldr	r1, [r3, #0]
  1008ae:	2c10      	cmp	r4, #16
  1008b0:	dcde      	bgt	100870 <.text+0x870>
  1008b2:	6015      	str	r5, [r2, #0]
  1008b4:	6054      	str	r4, [r2, #4]
  1008b6:	239f      	mov	r3, #159
  1008b8:	4a95      	ldr	r2, [pc, #596]	(100b10 <.text+0xb10>)
  1008ba:	00db      	lsl	r3, r3, #3
  1008bc:	1900      	add	r0, r0, r4
  1008be:	446a      	add	r2, sp
  1008c0:	3101      	add	r1, #1
  1008c2:	446b      	add	r3, sp
  1008c4:	6010      	str	r0, [r2, #0]
  1008c6:	6019      	str	r1, [r3, #0]
  1008c8:	2907      	cmp	r1, #7
  1008ca:	dd00      	ble	1008ce <.text+0x8ce>
  1008cc:	e0a7      	b	100a1e <.text+0xa1e>
  1008ce:	9a06      	ldr	r2, [sp, #24]
  1008d0:	4653      	mov	r3, sl
  1008d2:	4592      	cmp	sl, r2
  1008d4:	da00      	bge	1008d8 <.text+0x8d8>
  1008d6:	1c13      	mov	r3, r2		(add r3, r2, #0)
  1008d8:	9905      	ldr	r1, [sp, #20]
  1008da:	18c9      	add	r1, r1, r3
  1008dc:	9105      	str	r1, [sp, #20]
  1008de:	2800      	cmp	r0, #0
  1008e0:	d112      	bne	100908 <.text+0x908>
  1008e2:	229f      	mov	r2, #159
  1008e4:	00d2      	lsl	r2, r2, #3
  1008e6:	9b0a      	ldr	r3, [sp, #40]
  1008e8:	2100      	mov	r1, #0
  1008ea:	446a      	add	r2, sp
  1008ec:	6011      	str	r1, [r2, #0]
  1008ee:	2b00      	cmp	r3, #0
  1008f0:	d064      	beq	1009bc <.text+0x9bc>
  1008f2:	9801      	ldr	r0, [sp, #4]
  1008f4:	1c19      	mov	r1, r3		(add r1, r3, #0)
  1008f6:	ffebf000 	bl	1018d0 <_free_r>
  1008fa:	4e87      	ldr	r6, [pc, #540]	(100b18 <.text+0xb18>)
  1008fc:	2000      	mov	r0, #0
  1008fe:	900a      	str	r0, [sp, #40]
  100900:	446e      	add	r6, sp
  100902:	9b0b      	ldr	r3, [sp, #44]
  100904:	469a      	mov	sl, r3
  100906:	e654      	b	1005b2 <_vfiprintf_r+0xfe>
  100908:	4982      	ldr	r1, [pc, #520]	(100b14 <.text+0xb14>)
  10090a:	4640      	mov	r0, r8
  10090c:	4469      	add	r1, sp
  10090e:	fdc1f7ff 	bl	100494 <__sprint>
  100912:	2800      	cmp	r0, #0
  100914:	d0e5      	beq	1008e2 <.text+0x8e2>
  100916:	9a0a      	ldr	r2, [sp, #40]
  100918:	2a00      	cmp	r2, #0
  10091a:	d003      	beq	100924 <.text+0x924>
  10091c:	9801      	ldr	r0, [sp, #4]
  10091e:	990a      	ldr	r1, [sp, #40]
  100920:	ffd6f000 	bl	1018d0 <_free_r>
  100924:	4640      	mov	r0, r8
  100926:	8983      	ldrh	r3, [r0, #12]
  100928:	0659      	lsl	r1, r3, #25
  10092a:	d400      	bmi	10092e <.text+0x92e>
  10092c:	e622      	b	100574 <_vfiprintf_r+0xc0>
  10092e:	2201      	mov	r2, #1
  100930:	4252      	neg	r2, r2
  100932:	9205      	str	r2, [sp, #20]
  100934:	e61e      	b	100574 <_vfiprintf_r+0xc0>
  100936:	9a06      	ldr	r2, [sp, #24]
  100938:	4653      	mov	r3, sl
  10093a:	1ad4      	sub	r4, r2, r3
  10093c:	2c00      	cmp	r4, #0
  10093e:	dc00      	bgt	100942 <.text+0x942>
  100940:	e716      	b	100770 <_vfiprintf_r+0x2bc>
  100942:	2c10      	cmp	r4, #16
  100944:	dc00      	bgt	100948 <.text+0x948>
  100946:	e233      	b	100db0 <.text+0xdb0>
  100948:	4d75      	ldr	r5, [pc, #468]	(100b20 <.text+0xb20>)
  10094a:	e003      	b	100954 <.text+0x954>
  10094c:	3c10      	sub	r4, #16
  10094e:	3608      	add	r6, #8
  100950:	2c10      	cmp	r4, #16
  100952:	dd20      	ble	100996 <.text+0x996>
  100954:	2310      	mov	r3, #16
  100956:	6073      	str	r3, [r6, #4]
  100958:	4a6d      	ldr	r2, [pc, #436]	(100b10 <.text+0xb10>)
  10095a:	239f      	mov	r3, #159
  10095c:	00db      	lsl	r3, r3, #3
  10095e:	3010      	add	r0, #16
  100960:	446a      	add	r2, sp
  100962:	3101      	add	r1, #1
  100964:	446b      	add	r3, sp
  100966:	6035      	str	r5, [r6, #0]
  100968:	6010      	str	r0, [r2, #0]
  10096a:	6019      	str	r1, [r3, #0]
  10096c:	2907      	cmp	r1, #7
  10096e:	dded      	ble	10094c <.text+0x94c>
  100970:	4968      	ldr	r1, [pc, #416]	(100b14 <.text+0xb14>)
  100972:	4640      	mov	r0, r8
  100974:	4469      	add	r1, sp
  100976:	fd8df7ff 	bl	100494 <__sprint>
  10097a:	2800      	cmp	r0, #0
  10097c:	d1cb      	bne	100916 <.text+0x916>
  10097e:	4964      	ldr	r1, [pc, #400]	(100b10 <.text+0xb10>)
  100980:	229f      	mov	r2, #159
  100982:	4e65      	ldr	r6, [pc, #404]	(100b18 <.text+0xb18>)
  100984:	00d2      	lsl	r2, r2, #3
  100986:	4469      	add	r1, sp
  100988:	446a      	add	r2, sp
  10098a:	3c10      	sub	r4, #16
  10098c:	6808      	ldr	r0, [r1, #0]
  10098e:	446e      	add	r6, sp
  100990:	6811      	ldr	r1, [r2, #0]
  100992:	2c10      	cmp	r4, #16
  100994:	dcde      	bgt	100954 <.text+0x954>
  100996:	4b5e      	ldr	r3, [pc, #376]	(100b10 <.text+0xb10>)
  100998:	229f      	mov	r2, #159
  10099a:	00d2      	lsl	r2, r2, #3
  10099c:	1900      	add	r0, r0, r4
  10099e:	446b      	add	r3, sp
  1009a0:	3101      	add	r1, #1
  1009a2:	446a      	add	r2, sp
  1009a4:	6035      	str	r5, [r6, #0]
  1009a6:	6074      	str	r4, [r6, #4]
  1009a8:	6018      	str	r0, [r3, #0]
  1009aa:	6011      	str	r1, [r2, #0]
  1009ac:	2907      	cmp	r1, #7
  1009ae:	dd00      	ble	1009b2 <.text+0x9b2>
  1009b0:	e26e      	b	100e90 <.text+0xe90>
  1009b2:	3608      	add	r6, #8
  1009b4:	e6dc      	b	100770 <_vfiprintf_r+0x2bc>
  1009b6:	fe7df000 	bl	1016b4 <__sinit>
  1009ba:	e58d      	b	1004d8 <_vfiprintf_r+0x24>
  1009bc:	4e56      	ldr	r6, [pc, #344]	(100b18 <.text+0xb18>)
  1009be:	446e      	add	r6, sp
  1009c0:	e79f      	b	100902 <.text+0x902>
  1009c2:	4954      	ldr	r1, [pc, #336]	(100b14 <.text+0xb14>)
  1009c4:	4640      	mov	r0, r8
  1009c6:	4469      	add	r1, sp
  1009c8:	fd64f7ff 	bl	100494 <__sprint>
  1009cc:	2800      	cmp	r0, #0
  1009ce:	d1a2      	bne	100916 <.text+0x916>
  1009d0:	4b4f      	ldr	r3, [pc, #316]	(100b10 <.text+0xb10>)
  1009d2:	4a51      	ldr	r2, [pc, #324]	(100b18 <.text+0xb18>)
  1009d4:	446b      	add	r3, sp
  1009d6:	6818      	ldr	r0, [r3, #0]
  1009d8:	446a      	add	r2, sp
  1009da:	e734      	b	100846 <.text+0x846>
  1009dc:	4640      	mov	r0, r8
  1009de:	fdadf000 	bl	10153c <__swsetup>
  1009e2:	2800      	cmp	r0, #0
  1009e4:	d1a3      	bne	10092e <.text+0x92e>
  1009e6:	4643      	mov	r3, r8
  1009e8:	899a      	ldrh	r2, [r3, #12]
  1009ea:	e57e      	b	1004ea <_vfiprintf_r+0x36>
  1009ec:	4949      	ldr	r1, [pc, #292]	(100b14 <.text+0xb14>)
  1009ee:	4640      	mov	r0, r8
  1009f0:	4469      	add	r1, sp
  1009f2:	fd4ff7ff 	bl	100494 <__sprint>
  1009f6:	2800      	cmp	r0, #0
  1009f8:	d18d      	bne	100916 <.text+0x916>
  1009fa:	4b45      	ldr	r3, [pc, #276]	(100b10 <.text+0xb10>)
  1009fc:	229f      	mov	r2, #159
  1009fe:	00d2      	lsl	r2, r2, #3
  100a00:	4e45      	ldr	r6, [pc, #276]	(100b18 <.text+0xb18>)
  100a02:	446b      	add	r3, sp
  100a04:	446a      	add	r2, sp
  100a06:	6818      	ldr	r0, [r3, #0]
  100a08:	6811      	ldr	r1, [r2, #0]
  100a0a:	446e      	add	r6, sp
  100a0c:	e6ac      	b	100768 <_vfiprintf_r+0x2b4>
  100a0e:	2301      	mov	r3, #1
  100a10:	425b      	neg	r3, r3
  100a12:	9305      	str	r3, [sp, #20]
  100a14:	89a3      	ldrh	r3, [r4, #12]
  100a16:	0658      	lsl	r0, r3, #25
  100a18:	d500      	bpl	100a1c <.text+0xa1c>
  100a1a:	e5a5      	b	100568 <_vfiprintf_r+0xb4>
  100a1c:	e5aa      	b	100574 <_vfiprintf_r+0xc0>
  100a1e:	493d      	ldr	r1, [pc, #244]	(100b14 <.text+0xb14>)
  100a20:	4640      	mov	r0, r8
  100a22:	4469      	add	r1, sp
  100a24:	fd36f7ff 	bl	100494 <__sprint>
  100a28:	2800      	cmp	r0, #0
  100a2a:	d000      	beq	100a2e <.text+0xa2e>
  100a2c:	e773      	b	100916 <.text+0x916>
  100a2e:	4938      	ldr	r1, [pc, #224]	(100b10 <.text+0xb10>)
  100a30:	4469      	add	r1, sp
  100a32:	6808      	ldr	r0, [r1, #0]
  100a34:	e74b      	b	1008ce <.text+0x8ce>
  100a36:	9904      	ldr	r1, [sp, #16]
  100a38:	2310      	mov	r3, #16
  100a3a:	4319      	orr	r1, r3
  100a3c:	9104      	str	r1, [sp, #16]
  100a3e:	9a04      	ldr	r2, [sp, #16]
  100a40:	06d2      	lsl	r2, r2, #27
  100a42:	d500      	bpl	100a46 <.text+0xa46>
  100a44:	e0ae      	b	100ba4 <.text+0xba4>
  100a46:	9904      	ldr	r1, [sp, #16]
  100a48:	0649      	lsl	r1, r1, #25
  100a4a:	d400      	bmi	100a4e <.text+0xa4e>
  100a4c:	e299      	b	100f82 <.text+0xf82>
  100a4e:	4652      	mov	r2, sl
  100a50:	4653      	mov	r3, sl
  100a52:	3204      	add	r2, #4
  100a54:	881c      	ldrh	r4, [r3, #0]
  100a56:	920b      	str	r2, [sp, #44]
  100a58:	2201      	mov	r2, #1
  100a5a:	e020      	b	100a9e <.text+0xa9e>
  100a5c:	9904      	ldr	r1, [sp, #16]
  100a5e:	2310      	mov	r3, #16
  100a60:	4319      	orr	r1, r3
  100a62:	9104      	str	r1, [sp, #16]
  100a64:	9a04      	ldr	r2, [sp, #16]
  100a66:	06d2      	lsl	r2, r2, #27
  100a68:	d500      	bpl	100a6c <.text+0xa6c>
  100a6a:	e091      	b	100b90 <.text+0xb90>
  100a6c:	9904      	ldr	r1, [sp, #16]
  100a6e:	0649      	lsl	r1, r1, #25
  100a70:	d400      	bmi	100a74 <.text+0xa74>
  100a72:	e274      	b	100f5e <.text+0xf5e>
  100a74:	4650      	mov	r0, sl
  100a76:	6803      	ldr	r3, [r0, #0]
  100a78:	4652      	mov	r2, sl
  100a7a:	041b      	lsl	r3, r3, #16
  100a7c:	3204      	add	r2, #4
  100a7e:	141c      	asr	r4, r3, #16
  100a80:	920b      	str	r2, [sp, #44]
  100a82:	e08a      	b	100b9a <.text+0xb9a>
  100a84:	9a04      	ldr	r2, [sp, #16]
  100a86:	2310      	mov	r3, #16
  100a88:	431a      	orr	r2, r3
  100a8a:	9204      	str	r2, [sp, #16]
  100a8c:	9b04      	ldr	r3, [sp, #16]
  100a8e:	06db      	lsl	r3, r3, #27
  100a90:	d573      	bpl	100b7a <.text+0xb7a>
  100a92:	4650      	mov	r0, sl
  100a94:	3004      	add	r0, #4
  100a96:	4651      	mov	r1, sl
  100a98:	900b      	str	r0, [sp, #44]
  100a9a:	680c      	ldr	r4, [r1, #0]
  100a9c:	2200      	mov	r2, #0
  100a9e:	4921      	ldr	r1, [pc, #132]	(100b24 <.text+0xb24>)
  100aa0:	2300      	mov	r3, #0
  100aa2:	4469      	add	r1, sp
  100aa4:	700b      	strb	r3, [r1, #0]
  100aa6:	9b07      	ldr	r3, [sp, #28]
  100aa8:	2b00      	cmp	r3, #0
  100aaa:	db03      	blt	100ab4 <.text+0xab4>
  100aac:	9804      	ldr	r0, [sp, #16]
  100aae:	2380      	mov	r3, #128
  100ab0:	4398      	bic	r0, r3
  100ab2:	9004      	str	r0, [sp, #16]
  100ab4:	2c00      	cmp	r4, #0
  100ab6:	d000      	beq	100aba <.text+0xaba>
  100ab8:	e180      	b	100dbc <.text+0xdbc>
  100aba:	9907      	ldr	r1, [sp, #28]
  100abc:	2900      	cmp	r1, #0
  100abe:	d000      	beq	100ac2 <.text+0xac2>
  100ac0:	e17c      	b	100dbc <.text+0xdbc>
  100ac2:	2a00      	cmp	r2, #0
  100ac4:	d100      	bne	100ac8 <.text+0xac8>
  100ac6:	e1f9      	b	100ebc <.text+0xebc>
  100ac8:	4b12      	ldr	r3, [pc, #72]	(100b14 <.text+0xb14>)
  100aca:	4d17      	ldr	r5, [pc, #92]	(100b28 <.text+0xb28>)
  100acc:	446b      	add	r3, sp
  100ace:	9303      	str	r3, [sp, #12]
  100ad0:	446d      	add	r5, sp
  100ad2:	9803      	ldr	r0, [sp, #12]
  100ad4:	9907      	ldr	r1, [sp, #28]
  100ad6:	1a2b      	sub	r3, r5, r0
  100ad8:	3328      	add	r3, #40
  100ada:	9108      	str	r1, [sp, #32]
  100adc:	469b      	mov	fp, r3
  100ade:	9808      	ldr	r0, [sp, #32]
  100ae0:	46da      	mov	sl, fp
  100ae2:	4583      	cmp	fp, r0
  100ae4:	da00      	bge	100ae8 <.text+0xae8>
  100ae6:	4682      	mov	sl, r0
  100ae8:	490e      	ldr	r1, [pc, #56]	(100b24 <.text+0xb24>)
  100aea:	4469      	add	r1, sp
  100aec:	780b      	ldrb	r3, [r1, #0]
  100aee:	2b00      	cmp	r3, #0
  100af0:	d100      	bne	100af4 <.text+0xaf4>
  100af2:	e5b0      	b	100656 <_vfiprintf_r+0x1a2>
  100af4:	2201      	mov	r2, #1
  100af6:	4492      	add	sl, r2
  100af8:	e5b2      	b	100660 <_vfiprintf_r+0x1ac>
  100afa:	4906      	ldr	r1, [pc, #24]	(100b14 <.text+0xb14>)
  100afc:	4640      	mov	r0, r8
  100afe:	4469      	add	r1, sp
  100b00:	fcc8f7ff 	bl	100494 <__sprint>
  100b04:	2800      	cmp	r0, #0
  100b06:	d000      	beq	100b0a <.text+0xb0a>
  100b08:	e70c      	b	100924 <.text+0x924>
  100b0a:	4e03      	ldr	r6, [pc, #12]	(100b18 <.text+0xb18>)
  100b0c:	446e      	add	r6, sp
  100b0e:	e572      	b	1005f6 <_vfiprintf_r+0x142>
  100b10:	04fc      	lsl	r4, r7, #19
  100b12:	0000      	lsl	r0, r0, #0
  100b14:	04f4      	lsl	r4, r6, #19
  100b16:	0000      	lsl	r0, r0, #0
  100b18:	048c      	lsl	r4, r1, #18
  100b1a:	0000      	lsl	r0, r0, #0
  100b1c:	3028      	add	r0, #40
  100b1e:	0010      	lsl	r0, r2, #0
  100b20:	3018      	add	r0, #24
  100b22:	0010      	lsl	r0, r2, #0
  100b24:	0517      	lsl	r7, r2, #20
  100b26:	0000      	lsl	r0, r0, #0
  100b28:	04cc      	lsl	r4, r1, #19
  100b2a:	0000      	lsl	r0, r0, #0
  100b2c:	49cf      	ldr	r1, [pc, #828]	(100e6c <.text+0xe6c>)
  100b2e:	4640      	mov	r0, r8
  100b30:	4469      	add	r1, sp
  100b32:	fcaff7ff 	bl	100494 <__sprint>
  100b36:	2800      	cmp	r0, #0
  100b38:	d000      	beq	100b3c <.text+0xb3c>
  100b3a:	e6ec      	b	100916 <.text+0x916>
  100b3c:	4bcc      	ldr	r3, [pc, #816]	(100e70 <.text+0xe70>)
  100b3e:	229f      	mov	r2, #159
  100b40:	00d2      	lsl	r2, r2, #3
  100b42:	4ecc      	ldr	r6, [pc, #816]	(100e74 <.text+0xe74>)
  100b44:	446b      	add	r3, sp
  100b46:	446a      	add	r2, sp
  100b48:	6818      	ldr	r0, [r3, #0]
  100b4a:	6811      	ldr	r1, [r2, #0]
  100b4c:	446e      	add	r6, sp
  100b4e:	e668      	b	100822 <.text+0x822>
  100b50:	48c7      	ldr	r0, [pc, #796]	(100e70 <.text+0xe70>)
  100b52:	4468      	add	r0, sp
  100b54:	6803      	ldr	r3, [r0, #0]
  100b56:	2b00      	cmp	r3, #0
  100b58:	d000      	beq	100b5c <.text+0xb5c>
  100b5a:	e119      	b	100d90 <.text+0xd90>
  100b5c:	219f      	mov	r1, #159
  100b5e:	00c9      	lsl	r1, r1, #3
  100b60:	2300      	mov	r3, #0
  100b62:	4469      	add	r1, sp
  100b64:	600b      	str	r3, [r1, #0]
  100b66:	e6dd      	b	100924 <.text+0x924>
  100b68:	4252      	neg	r2, r2
  100b6a:	9206      	str	r2, [sp, #24]
  100b6c:	469a      	mov	sl, r3
  100b6e:	9804      	ldr	r0, [sp, #16]
  100b70:	2304      	mov	r3, #4
  100b72:	4318      	orr	r0, r3
  100b74:	9004      	str	r0, [sp, #16]
  100b76:	783a      	ldrb	r2, [r7, #0]
  100b78:	e550      	b	10061c <_vfiprintf_r+0x168>
  100b7a:	9a04      	ldr	r2, [sp, #16]
  100b7c:	0652      	lsl	r2, r2, #25
  100b7e:	d400      	bmi	100b82 <.text+0xb82>
  100b80:	e1e6      	b	100f50 <.text+0xf50>
  100b82:	4650      	mov	r0, sl
  100b84:	4653      	mov	r3, sl
  100b86:	8804      	ldrh	r4, [r0, #0]
  100b88:	3304      	add	r3, #4
  100b8a:	2200      	mov	r2, #0
  100b8c:	930b      	str	r3, [sp, #44]
  100b8e:	e786      	b	100a9e <.text+0xa9e>
  100b90:	4653      	mov	r3, sl
  100b92:	3304      	add	r3, #4
  100b94:	4650      	mov	r0, sl
  100b96:	930b      	str	r3, [sp, #44]
  100b98:	6804      	ldr	r4, [r0, #0]
  100b9a:	2c00      	cmp	r4, #0
  100b9c:	da00      	bge	100ba0 <.text+0xba0>
  100b9e:	e100      	b	100da2 <.text+0xda2>
  100ba0:	2201      	mov	r2, #1
  100ba2:	e780      	b	100aa6 <.text+0xaa6>
  100ba4:	4650      	mov	r0, sl
  100ba6:	4653      	mov	r3, sl
  100ba8:	6804      	ldr	r4, [r0, #0]
  100baa:	3304      	add	r3, #4
  100bac:	2201      	mov	r2, #1
  100bae:	930b      	str	r3, [sp, #44]
  100bb0:	e775      	b	100a9e <.text+0xa9e>
  100bb2:	49b1      	ldr	r1, [pc, #708]	(100e78 <.text+0xe78>)
  100bb4:	232b      	mov	r3, #43
  100bb6:	4469      	add	r1, sp
  100bb8:	700b      	strb	r3, [r1, #0]
  100bba:	783a      	ldrb	r2, [r7, #0]
  100bbc:	e52e      	b	10061c <_vfiprintf_r+0x168>
  100bbe:	4652      	mov	r2, sl
  100bc0:	6812      	ldr	r2, [r2, #0]
  100bc2:	4653      	mov	r3, sl
  100bc4:	3304      	add	r3, #4
  100bc6:	9206      	str	r2, [sp, #24]
  100bc8:	2a00      	cmp	r2, #0
  100bca:	dbcd      	blt	100b68 <.text+0xb68>
  100bcc:	783a      	ldrb	r2, [r7, #0]
  100bce:	469a      	mov	sl, r3
  100bd0:	e524      	b	10061c <_vfiprintf_r+0x168>
  100bd2:	9904      	ldr	r1, [sp, #16]
  100bd4:	2301      	mov	r3, #1
  100bd6:	4319      	orr	r1, r3
  100bd8:	9104      	str	r1, [sp, #16]
  100bda:	783a      	ldrb	r2, [r7, #0]
  100bdc:	e51e      	b	10061c <_vfiprintf_r+0x168>
  100bde:	48a6      	ldr	r0, [pc, #664]	(100e78 <.text+0xe78>)
  100be0:	4468      	add	r0, sp
  100be2:	7803      	ldrb	r3, [r0, #0]
  100be4:	2b00      	cmp	r3, #0
  100be6:	d000      	beq	100bea <.text+0xbea>
  100be8:	e1af      	b	100f4a <.text+0xf4a>
  100bea:	2320      	mov	r3, #32
  100bec:	7003      	strb	r3, [r0, #0]
  100bee:	783a      	ldrb	r2, [r7, #0]
  100bf0:	e514      	b	10061c <_vfiprintf_r+0x168>
  100bf2:	4aa2      	ldr	r2, [pc, #648]	(100e7c <.text+0xe7c>)
  100bf4:	9209      	str	r2, [sp, #36]
  100bf6:	9b04      	ldr	r3, [sp, #16]
  100bf8:	06db      	lsl	r3, r3, #27
  100bfa:	d400      	bmi	100bfe <.text+0xbfe>
  100bfc:	e167      	b	100ece <.text+0xece>
  100bfe:	4650      	mov	r0, sl
  100c00:	3004      	add	r0, #4
  100c02:	4651      	mov	r1, sl
  100c04:	900b      	str	r0, [sp, #44]
  100c06:	680c      	ldr	r4, [r1, #0]
  100c08:	9b04      	ldr	r3, [sp, #16]
  100c0a:	07db      	lsl	r3, r3, #31
  100c0c:	d400      	bmi	100c10 <.text+0xc10>
  100c0e:	e151      	b	100eb4 <.text+0xeb4>
  100c10:	2c00      	cmp	r4, #0
  100c12:	d100      	bne	100c16 <.text+0xc16>
  100c14:	e14e      	b	100eb4 <.text+0xeb4>
  100c16:	9804      	ldr	r0, [sp, #16]
  100c18:	2302      	mov	r3, #2
  100c1a:	4318      	orr	r0, r3
  100c1c:	2202      	mov	r2, #2
  100c1e:	9004      	str	r0, [sp, #16]
  100c20:	e73d      	b	100a9e <.text+0xa9e>
  100c22:	464b      	mov	r3, r9
  100c24:	2b43      	cmp	r3, #67
  100c26:	d100      	bne	100c2a <.text+0xc2a>
  100c28:	e175      	b	100f16 <.text+0xf16>
  100c2a:	9804      	ldr	r0, [sp, #16]
  100c2c:	06c0      	lsl	r0, r0, #27
  100c2e:	d500      	bpl	100c32 <.text+0xc32>
  100c30:	e171      	b	100f16 <.text+0xf16>
  100c32:	4d93      	ldr	r5, [pc, #588]	(100e80 <.text+0xe80>)
  100c34:	4650      	mov	r0, sl
  100c36:	4652      	mov	r2, sl
  100c38:	6803      	ldr	r3, [r0, #0]
  100c3a:	3204      	add	r2, #4
  100c3c:	446d      	add	r5, sp
  100c3e:	920b      	str	r2, [sp, #44]
  100c40:	2101      	mov	r1, #1
  100c42:	702b      	strb	r3, [r5, #0]
  100c44:	468b      	mov	fp, r1
  100c46:	4a8c      	ldr	r2, [pc, #560]	(100e78 <.text+0xe78>)
  100c48:	2300      	mov	r3, #0
  100c4a:	446a      	add	r2, sp
  100c4c:	7013      	strb	r3, [r2, #0]
  100c4e:	465b      	mov	r3, fp
  100c50:	2b00      	cmp	r3, #0
  100c52:	469a      	mov	sl, r3
  100c54:	da00      	bge	100c58 <.text+0xc58>
  100c56:	e0ad      	b	100db4 <.text+0xdb4>
  100c58:	9503      	str	r5, [sp, #12]
  100c5a:	e4fa      	b	100652 <_vfiprintf_r+0x19e>
  100c5c:	4b89      	ldr	r3, [pc, #548]	(100e84 <.text+0xe84>)
  100c5e:	9309      	str	r3, [sp, #36]
  100c60:	e7c9      	b	100bf6 <.text+0xbf6>
  100c62:	2200      	mov	r2, #0
  100c64:	0093      	lsl	r3, r2, #2
  100c66:	189b      	add	r3, r3, r2
  100c68:	7839      	ldrb	r1, [r7, #0]
  100c6a:	005b      	lsl	r3, r3, #1
  100c6c:	444b      	add	r3, r9
  100c6e:	1c1a      	mov	r2, r3		(add r2, r3, #0)
  100c70:	1c0b      	mov	r3, r1		(add r3, r1, #0)
  100c72:	3b30      	sub	r3, #48
  100c74:	3a30      	sub	r2, #48
  100c76:	4689      	mov	r9, r1
  100c78:	3701      	add	r7, #1
  100c7a:	2b09      	cmp	r3, #9
  100c7c:	d9f2      	bls	100c64 <.text+0xc64>
  100c7e:	9206      	str	r2, [sp, #24]
  100c80:	e4ce      	b	100620 <_vfiprintf_r+0x16c>
  100c82:	9804      	ldr	r0, [sp, #16]
  100c84:	2380      	mov	r3, #128
  100c86:	4318      	orr	r0, r3
  100c88:	9004      	str	r0, [sp, #16]
  100c8a:	783a      	ldrb	r2, [r7, #0]
  100c8c:	e4c6      	b	10061c <_vfiprintf_r+0x168>
  100c8e:	9a04      	ldr	r2, [sp, #16]
  100c90:	2340      	mov	r3, #64
  100c92:	431a      	orr	r2, r3
  100c94:	9204      	str	r2, [sp, #16]
  100c96:	783a      	ldrb	r2, [r7, #0]
  100c98:	e4c0      	b	10061c <_vfiprintf_r+0x168>
  100c9a:	4653      	mov	r3, sl
  100c9c:	3304      	add	r3, #4
  100c9e:	9904      	ldr	r1, [sp, #16]
  100ca0:	4650      	mov	r0, sl
  100ca2:	930b      	str	r3, [sp, #44]
  100ca4:	2302      	mov	r3, #2
  100ca6:	4319      	orr	r1, r3
  100ca8:	6804      	ldr	r4, [r0, #0]
  100caa:	2378      	mov	r3, #120
  100cac:	4875      	ldr	r0, [pc, #468]	(100e84 <.text+0xe84>)
  100cae:	2202      	mov	r2, #2
  100cb0:	4699      	mov	r9, r3
  100cb2:	9104      	str	r1, [sp, #16]
  100cb4:	9009      	str	r0, [sp, #36]
  100cb6:	e6f2      	b	100a9e <.text+0xa9e>
  100cb8:	9904      	ldr	r1, [sp, #16]
  100cba:	06c9      	lsl	r1, r1, #27
  100cbc:	d500      	bpl	100cc0 <.text+0xcc0>
  100cbe:	e10f      	b	100ee0 <.text+0xee0>
  100cc0:	9a04      	ldr	r2, [sp, #16]
  100cc2:	0652      	lsl	r2, r2, #25
  100cc4:	d400      	bmi	100cc8 <.text+0xcc8>
  100cc6:	e10b      	b	100ee0 <.text+0xee0>
  100cc8:	4653      	mov	r3, sl
  100cca:	3304      	add	r3, #4
  100ccc:	4650      	mov	r0, sl
  100cce:	4669      	mov	r1, sp
  100cd0:	930b      	str	r3, [sp, #44]
  100cd2:	8a89      	ldrh	r1, [r1, #20]
  100cd4:	6803      	ldr	r3, [r0, #0]
  100cd6:	8019      	strh	r1, [r3, #0]
  100cd8:	e613      	b	100902 <.text+0x902>
  100cda:	783a      	ldrb	r2, [r7, #0]
  100cdc:	2a6c      	cmp	r2, #108
  100cde:	d100      	bne	100ce2 <.text+0xce2>
  100ce0:	e18a      	b	100ff8 <.text+0xff8>
  100ce2:	9904      	ldr	r1, [sp, #16]
  100ce4:	2310      	mov	r3, #16
  100ce6:	4319      	orr	r1, r3
  100ce8:	9104      	str	r1, [sp, #16]
  100cea:	e497      	b	10061c <_vfiprintf_r+0x168>
  100cec:	783b      	ldrb	r3, [r7, #0]
  100cee:	3701      	add	r7, #1
  100cf0:	2b2a      	cmp	r3, #42
  100cf2:	d100      	bne	100cf6 <.text+0xcf6>
  100cf4:	e1df      	b	1010b6 <.text+0x10b6>
  100cf6:	4699      	mov	r9, r3
  100cf8:	3b30      	sub	r3, #48
  100cfa:	2b09      	cmp	r3, #9
  100cfc:	d900      	bls	100d00 <.text+0xd00>
  100cfe:	e1ae      	b	10105e <.text+0x105e>
  100d00:	2200      	mov	r2, #0
  100d02:	0093      	lsl	r3, r2, #2
  100d04:	189b      	add	r3, r3, r2
  100d06:	7839      	ldrb	r1, [r7, #0]
  100d08:	005b      	lsl	r3, r3, #1
  100d0a:	444b      	add	r3, r9
  100d0c:	1c1a      	mov	r2, r3		(add r2, r3, #0)
  100d0e:	1c0b      	mov	r3, r1		(add r3, r1, #0)
  100d10:	3b30      	sub	r3, #48
  100d12:	3a30      	sub	r2, #48
  100d14:	4689      	mov	r9, r1
  100d16:	3701      	add	r7, #1
  100d18:	2b09      	cmp	r3, #9
  100d1a:	d9f2      	bls	100d02 <.text+0xd02>
  100d1c:	2a00      	cmp	r2, #0
  100d1e:	9207      	str	r2, [sp, #28]
  100d20:	db00      	blt	100d24 <.text+0xd24>
  100d22:	e47d      	b	100620 <_vfiprintf_r+0x16c>
  100d24:	2201      	mov	r2, #1
  100d26:	4252      	neg	r2, r2
  100d28:	9207      	str	r2, [sp, #28]
  100d2a:	e479      	b	100620 <_vfiprintf_r+0x16c>
  100d2c:	4952      	ldr	r1, [pc, #328]	(100e78 <.text+0xe78>)
  100d2e:	2300      	mov	r3, #0
  100d30:	4469      	add	r1, sp
  100d32:	700b      	strb	r3, [r1, #0]
  100d34:	4653      	mov	r3, sl
  100d36:	4652      	mov	r2, sl
  100d38:	681b      	ldr	r3, [r3, #0]
  100d3a:	3204      	add	r2, #4
  100d3c:	920b      	str	r2, [sp, #44]
  100d3e:	9303      	str	r3, [sp, #12]
  100d40:	2b00      	cmp	r3, #0
  100d42:	d100      	bne	100d46 <.text+0xd46>
  100d44:	e160      	b	101008 <.text+0x1008>
  100d46:	4648      	mov	r0, r9
  100d48:	2853      	cmp	r0, #83
  100d4a:	d100      	bne	100d4e <.text+0xd4e>
  100d4c:	e120      	b	100f90 <.text+0xf90>
  100d4e:	9904      	ldr	r1, [sp, #16]
  100d50:	06c9      	lsl	r1, r1, #27
  100d52:	d500      	bpl	100d56 <.text+0xd56>
  100d54:	e11c      	b	100f90 <.text+0xf90>
  100d56:	9907      	ldr	r1, [sp, #28]
  100d58:	2900      	cmp	r1, #0
  100d5a:	da00      	bge	100d5e <.text+0xd5e>
  100d5c:	e183      	b	101066 <.text+0x1066>
  100d5e:	9803      	ldr	r0, [sp, #12]
  100d60:	2100      	mov	r1, #0
  100d62:	9a07      	ldr	r2, [sp, #28]
  100d64:	fbaaf001 	bl	1024bc <memchr>
  100d68:	2800      	cmp	r0, #0
  100d6a:	d006      	beq	100d7a <.text+0xd7a>
  100d6c:	9a03      	ldr	r2, [sp, #12]
  100d6e:	9b07      	ldr	r3, [sp, #28]
  100d70:	1a82      	sub	r2, r0, r2
  100d72:	4693      	mov	fp, r2
  100d74:	455b      	cmp	r3, fp
  100d76:	db00      	blt	100d7a <.text+0xd7a>
  100d78:	e13b      	b	100ff2 <.text+0xff2>
  100d7a:	9907      	ldr	r1, [sp, #28]
  100d7c:	2200      	mov	r2, #0
  100d7e:	468b      	mov	fp, r1
  100d80:	9208      	str	r2, [sp, #32]
  100d82:	e6ac      	b	100ade <.text+0xade>
  100d84:	9a04      	ldr	r2, [sp, #16]
  100d86:	2310      	mov	r3, #16
  100d88:	431a      	orr	r2, r3
  100d8a:	9204      	str	r2, [sp, #16]
  100d8c:	783a      	ldrb	r2, [r7, #0]
  100d8e:	e445      	b	10061c <_vfiprintf_r+0x168>
  100d90:	4936      	ldr	r1, [pc, #216]	(100e6c <.text+0xe6c>)
  100d92:	4640      	mov	r0, r8
  100d94:	4469      	add	r1, sp
  100d96:	fb7df7ff 	bl	100494 <__sprint>
  100d9a:	2800      	cmp	r0, #0
  100d9c:	d000      	beq	100da0 <.text+0xda0>
  100d9e:	e5c1      	b	100924 <.text+0x924>
  100da0:	e6dc      	b	100b5c <.text+0xb5c>
  100da2:	4835      	ldr	r0, [pc, #212]	(100e78 <.text+0xe78>)
  100da4:	232d      	mov	r3, #45
  100da6:	4468      	add	r0, sp
  100da8:	4264      	neg	r4, r4
  100daa:	2201      	mov	r2, #1
  100dac:	7003      	strb	r3, [r0, #0]
  100dae:	e67a      	b	100aa6 <.text+0xaa6>
  100db0:	4d35      	ldr	r5, [pc, #212]	(100e88 <.text+0xe88>)
  100db2:	e5f0      	b	100996 <.text+0x996>
  100db4:	2000      	mov	r0, #0
  100db6:	4682      	mov	sl, r0
  100db8:	9503      	str	r5, [sp, #12]
  100dba:	e44a      	b	100652 <_vfiprintf_r+0x19e>
  100dbc:	2a01      	cmp	r2, #1
  100dbe:	d038      	beq	100e32 <.text+0xe32>
  100dc0:	2a01      	cmp	r2, #1
  100dc2:	d30a      	bcc	100dda <.text+0xdda>
  100dc4:	2a02      	cmp	r2, #2
  100dc6:	d022      	beq	100e0e <.text+0xe0e>
  100dc8:	4c30      	ldr	r4, [pc, #192]	(100e8c <.text+0xe8c>)
  100dca:	1c20      	mov	r0, r4		(add r0, r4, #0)
  100dcc:	fedcf001 	bl	102b88 <strlen>
  100dd0:	9a07      	ldr	r2, [sp, #28]
  100dd2:	4683      	mov	fp, r0
  100dd4:	9208      	str	r2, [sp, #32]
  100dd6:	9403      	str	r4, [sp, #12]
  100dd8:	e681      	b	100ade <.text+0xade>
  100dda:	4b24      	ldr	r3, [pc, #144]	(100e6c <.text+0xe6c>)
  100ddc:	446b      	add	r3, sp
  100dde:	9303      	str	r3, [sp, #12]
  100de0:	2207      	mov	r2, #7
  100de2:	9803      	ldr	r0, [sp, #12]
  100de4:	1c23      	mov	r3, r4		(add r3, r4, #0)
  100de6:	4013      	and	r3, r2
  100de8:	3801      	sub	r0, #1
  100dea:	3330      	add	r3, #48
  100dec:	08e4      	lsr	r4, r4, #3
  100dee:	9003      	str	r0, [sp, #12]
  100df0:	7003      	strb	r3, [r0, #0]
  100df2:	2c00      	cmp	r4, #0
  100df4:	d1f5      	bne	100de2 <.text+0xde2>
  100df6:	9904      	ldr	r1, [sp, #16]
  100df8:	07c9      	lsl	r1, r1, #31
  100dfa:	d517      	bpl	100e2c <.text+0xe2c>
  100dfc:	2b30      	cmp	r3, #48
  100dfe:	d015      	beq	100e2c <.text+0xe2c>
  100e00:	4d1f      	ldr	r5, [pc, #124]	(100e80 <.text+0xe80>)
  100e02:	3801      	sub	r0, #1
  100e04:	2330      	mov	r3, #48
  100e06:	446d      	add	r5, sp
  100e08:	9003      	str	r0, [sp, #12]
  100e0a:	7003      	strb	r3, [r0, #0]
  100e0c:	e661      	b	100ad2 <.text+0xad2>
  100e0e:	4b17      	ldr	r3, [pc, #92]	(100e6c <.text+0xe6c>)
  100e10:	446b      	add	r3, sp
  100e12:	9303      	str	r3, [sp, #12]
  100e14:	220f      	mov	r2, #15
  100e16:	9803      	ldr	r0, [sp, #12]
  100e18:	3801      	sub	r0, #1
  100e1a:	9003      	str	r0, [sp, #12]
  100e1c:	1c23      	mov	r3, r4		(add r3, r4, #0)
  100e1e:	9909      	ldr	r1, [sp, #36]
  100e20:	4013      	and	r3, r2
  100e22:	5ccb      	ldrb	r3, [r1, r3]
  100e24:	0924      	lsr	r4, r4, #4
  100e26:	7003      	strb	r3, [r0, #0]
  100e28:	2c00      	cmp	r4, #0
  100e2a:	d1f4      	bne	100e16 <.text+0xe16>
  100e2c:	4d14      	ldr	r5, [pc, #80]	(100e80 <.text+0xe80>)
  100e2e:	446d      	add	r5, sp
  100e30:	e64f      	b	100ad2 <.text+0xad2>
  100e32:	2c09      	cmp	r4, #9
  100e34:	d800      	bhi	100e38 <.text+0xe38>
  100e36:	e0ee      	b	101016 <.text+0x1016>
  100e38:	4d0c      	ldr	r5, [pc, #48]	(100e6c <.text+0xe6c>)
  100e3a:	446d      	add	r5, sp
  100e3c:	1c20      	mov	r0, r4		(add r0, r4, #0)
  100e3e:	210a      	mov	r1, #10
  100e40:	ff6ef001 	bl	102d20 <__umodsi3>
  100e44:	3d01      	sub	r5, #1
  100e46:	3030      	add	r0, #48
  100e48:	7028      	strb	r0, [r5, #0]
  100e4a:	210a      	mov	r1, #10
  100e4c:	1c20      	mov	r0, r4		(add r0, r4, #0)
  100e4e:	ff21f001 	bl	102c94 <__aeabi_uidiv>
  100e52:	1c04      	mov	r4, r0		(add r4, r0, #0)
  100e54:	2809      	cmp	r0, #9
  100e56:	d8f1      	bhi	100e3c <.text+0xe3c>
  100e58:	3d01      	sub	r5, #1
  100e5a:	9503      	str	r5, [sp, #12]
  100e5c:	4d08      	ldr	r5, [pc, #32]	(100e80 <.text+0xe80>)
  100e5e:	1c23      	mov	r3, r4		(add r3, r4, #0)
  100e60:	9a03      	ldr	r2, [sp, #12]
  100e62:	3330      	add	r3, #48
  100e64:	446d      	add	r5, sp
  100e66:	7013      	strb	r3, [r2, #0]
  100e68:	e633      	b	100ad2 <.text+0xad2>
  100e6a:	0000      	lsl	r0, r0, #0
  100e6c:	04f4      	lsl	r4, r6, #19
  100e6e:	0000      	lsl	r0, r0, #0
  100e70:	04fc      	lsl	r4, r7, #19
  100e72:	0000      	lsl	r0, r0, #0
  100e74:	048c      	lsl	r4, r1, #18
  100e76:	0000      	lsl	r0, r0, #0
  100e78:	0517      	lsl	r7, r2, #20
  100e7a:	0000      	lsl	r0, r0, #0
  100e7c:	2e7c      	cmp	r6, #124
  100e7e:	0010      	lsl	r0, r2, #0
  100e80:	04cc      	lsl	r4, r1, #19
  100e82:	0000      	lsl	r0, r0, #0
  100e84:	2e68      	cmp	r6, #104
  100e86:	0010      	lsl	r0, r2, #0
  100e88:	3018      	add	r0, #24
  100e8a:	0010      	lsl	r0, r2, #0
  100e8c:	2e90      	cmp	r6, #144
  100e8e:	0010      	lsl	r0, r2, #0
  100e90:	4994      	ldr	r1, [pc, #592]	(1010e4 <.text+0x10e4>)
  100e92:	4640      	mov	r0, r8
  100e94:	4469      	add	r1, sp
  100e96:	fafdf7ff 	bl	100494 <__sprint>
  100e9a:	2800      	cmp	r0, #0
  100e9c:	d000      	beq	100ea0 <.text+0xea0>
  100e9e:	e53a      	b	100916 <.text+0x916>
  100ea0:	4b91      	ldr	r3, [pc, #580]	(1010e8 <.text+0x10e8>)
  100ea2:	229f      	mov	r2, #159
  100ea4:	00d2      	lsl	r2, r2, #3
  100ea6:	4e91      	ldr	r6, [pc, #580]	(1010ec <.text+0x10ec>)
  100ea8:	446b      	add	r3, sp
  100eaa:	446a      	add	r2, sp
  100eac:	6818      	ldr	r0, [r3, #0]
  100eae:	6811      	ldr	r1, [r2, #0]
  100eb0:	446e      	add	r6, sp
  100eb2:	e45d      	b	100770 <_vfiprintf_r+0x2bc>
  100eb4:	2202      	mov	r2, #2
  100eb6:	e5f2      	b	100a9e <.text+0xa9e>
  100eb8:	4d8d      	ldr	r5, [pc, #564]	(1010f0 <.text+0x10f0>)
  100eba:	e4a3      	b	100804 <.text+0x804>
  100ebc:	9804      	ldr	r0, [sp, #16]
  100ebe:	07c0      	lsl	r0, r0, #31
  100ec0:	d420      	bmi	100f04 <.text+0xf04>
  100ec2:	4988      	ldr	r1, [pc, #544]	(1010e4 <.text+0x10e4>)
  100ec4:	4d8b      	ldr	r5, [pc, #556]	(1010f4 <.text+0x10f4>)
  100ec6:	4469      	add	r1, sp
  100ec8:	446d      	add	r5, sp
  100eca:	9103      	str	r1, [sp, #12]
  100ecc:	e601      	b	100ad2 <.text+0xad2>
  100ece:	9a04      	ldr	r2, [sp, #16]
  100ed0:	0652      	lsl	r2, r2, #25
  100ed2:	d550      	bpl	100f76 <.text+0xf76>
  100ed4:	4650      	mov	r0, sl
  100ed6:	4653      	mov	r3, sl
  100ed8:	8804      	ldrh	r4, [r0, #0]
  100eda:	3304      	add	r3, #4
  100edc:	930b      	str	r3, [sp, #44]
  100ede:	e693      	b	100c08 <.text+0xc08>
  100ee0:	4652      	mov	r2, sl
  100ee2:	3204      	add	r2, #4
  100ee4:	920b      	str	r2, [sp, #44]
  100ee6:	4650      	mov	r0, sl
  100ee8:	6803      	ldr	r3, [r0, #0]
  100eea:	9905      	ldr	r1, [sp, #20]
  100eec:	6019      	str	r1, [r3, #0]
  100eee:	e508      	b	100902 <.text+0x902>
  100ef0:	4b7d      	ldr	r3, [pc, #500]	(1010e8 <.text+0x10e8>)
  100ef2:	229f      	mov	r2, #159
  100ef4:	00d2      	lsl	r2, r2, #3
  100ef6:	446b      	add	r3, sp
  100ef8:	446a      	add	r2, sp
  100efa:	6818      	ldr	r0, [r3, #0]
  100efc:	6811      	ldr	r1, [r2, #0]
  100efe:	4d7e      	ldr	r5, [pc, #504]	(1010f8 <.text+0x10f8>)
  100f00:	fbebf7ff 	bl	1006da <_vfiprintf_r+0x226>
  100f04:	4d7b      	ldr	r5, [pc, #492]	(1010f4 <.text+0x10f4>)
  100f06:	2230      	mov	r2, #48
  100f08:	446d      	add	r5, sp
  100f0a:	2327      	mov	r3, #39
  100f0c:	54ea      	strb	r2, [r5, r3]
  100f0e:	4a7b      	ldr	r2, [pc, #492]	(1010fc <.text+0x10fc>)
  100f10:	446a      	add	r2, sp
  100f12:	9203      	str	r2, [sp, #12]
  100f14:	e5dd      	b	100ad2 <.text+0xad2>
  100f16:	24a1      	mov	r4, #161
  100f18:	00e4      	lsl	r4, r4, #3
  100f1a:	446c      	add	r4, sp
  100f1c:	4d75      	ldr	r5, [pc, #468]	(1010f4 <.text+0x10f4>)
  100f1e:	2100      	mov	r1, #0
  100f20:	2208      	mov	r2, #8
  100f22:	1c20      	mov	r0, r4		(add r0, r4, #0)
  100f24:	fb6ef001 	bl	102604 <memset>
  100f28:	446d      	add	r5, sp
  100f2a:	4651      	mov	r1, sl
  100f2c:	680a      	ldr	r2, [r1, #0]
  100f2e:	9801      	ldr	r0, [sp, #4]
  100f30:	1c29      	mov	r1, r5		(add r1, r5, #0)
  100f32:	1c23      	mov	r3, r4		(add r3, r4, #0)
  100f34:	f8f6f000 	bl	101124 <_wcrtomb_r>
  100f38:	1c02      	mov	r2, r0		(add r2, r0, #0)
  100f3a:	4683      	mov	fp, r0
  100f3c:	3201      	add	r2, #1
  100f3e:	d100      	bne	100f42 <.text+0xf42>
  100f40:	e0b2      	b	1010a8 <.text+0x10a8>
  100f42:	4653      	mov	r3, sl
  100f44:	3304      	add	r3, #4
  100f46:	930b      	str	r3, [sp, #44]
  100f48:	e67d      	b	100c46 <.text+0xc46>
  100f4a:	783a      	ldrb	r2, [r7, #0]
  100f4c:	fb66f7ff 	bl	10061c <_vfiprintf_r+0x168>
  100f50:	4652      	mov	r2, sl
  100f52:	4651      	mov	r1, sl
  100f54:	6814      	ldr	r4, [r2, #0]
  100f56:	3104      	add	r1, #4
  100f58:	2200      	mov	r2, #0
  100f5a:	910b      	str	r1, [sp, #44]
  100f5c:	e59f      	b	100a9e <.text+0xa9e>
  100f5e:	4652      	mov	r2, sl
  100f60:	4651      	mov	r1, sl
  100f62:	6814      	ldr	r4, [r2, #0]
  100f64:	3104      	add	r1, #4
  100f66:	910b      	str	r1, [sp, #44]
  100f68:	e617      	b	100b9a <.text+0xb9a>
  100f6a:	239f      	mov	r3, #159
  100f6c:	00db      	lsl	r3, r3, #3
  100f6e:	446b      	add	r3, sp
  100f70:	6819      	ldr	r1, [r3, #0]
  100f72:	4d61      	ldr	r5, [pc, #388]	(1010f8 <.text+0x10f8>)
  100f74:	e49d      	b	1008b2 <.text+0x8b2>
  100f76:	4652      	mov	r2, sl
  100f78:	4651      	mov	r1, sl
  100f7a:	6814      	ldr	r4, [r2, #0]
  100f7c:	3104      	add	r1, #4
  100f7e:	910b      	str	r1, [sp, #44]
  100f80:	e642      	b	100c08 <.text+0xc08>
  100f82:	4651      	mov	r1, sl
  100f84:	4650      	mov	r0, sl
  100f86:	680c      	ldr	r4, [r1, #0]
  100f88:	3004      	add	r0, #4
  100f8a:	2201      	mov	r2, #1
  100f8c:	900b      	str	r0, [sp, #44]
  100f8e:	e586      	b	100a9e <.text+0xa9e>
  100f90:	23a2      	mov	r3, #162
  100f92:	9a03      	ldr	r2, [sp, #12]
  100f94:	00db      	lsl	r3, r3, #3
  100f96:	20a0      	mov	r0, #160
  100f98:	446b      	add	r3, sp
  100f9a:	00c0      	lsl	r0, r0, #3
  100f9c:	601a      	str	r2, [r3, #0]
  100f9e:	4468      	add	r0, sp
  100fa0:	2100      	mov	r1, #0
  100fa2:	2208      	mov	r2, #8
  100fa4:	4682      	mov	sl, r0
  100fa6:	fb2df001 	bl	102604 <memset>
  100faa:	9907      	ldr	r1, [sp, #28]
  100fac:	2900      	cmp	r1, #0
  100fae:	db68      	blt	101082 <.text+0x1082>
  100fb0:	2200      	mov	r2, #0
  100fb2:	4693      	mov	fp, r2
  100fb4:	2400      	mov	r4, #0
  100fb6:	e000      	b	100fba <.text+0xfba>
  100fb8:	4683      	mov	fp, r0
  100fba:	20a2      	mov	r0, #162
  100fbc:	00c0      	lsl	r0, r0, #3
  100fbe:	4468      	add	r0, sp
  100fc0:	6803      	ldr	r3, [r0, #0]
  100fc2:	591a      	ldr	r2, [r3, r4]
  100fc4:	2a00      	cmp	r2, #0
  100fc6:	d011      	beq	100fec <.text+0xfec>
  100fc8:	4d4a      	ldr	r5, [pc, #296]	(1010f4 <.text+0x10f4>)
  100fca:	446d      	add	r5, sp
  100fcc:	1c29      	mov	r1, r5		(add r1, r5, #0)
  100fce:	9801      	ldr	r0, [sp, #4]
  100fd0:	4653      	mov	r3, sl
  100fd2:	f8a7f000 	bl	101124 <_wcrtomb_r>
  100fd6:	1c41      	add	r1, r0, #1
  100fd8:	d04c      	beq	101074 <.text+0x1074>
  100fda:	9a07      	ldr	r2, [sp, #28]
  100fdc:	4458      	add	r0, fp
  100fde:	4282      	cmp	r2, r0
  100fe0:	db04      	blt	100fec <.text+0xfec>
  100fe2:	3404      	add	r4, #4
  100fe4:	4282      	cmp	r2, r0
  100fe6:	d1e7      	bne	100fb8 <.text+0xfb8>
  100fe8:	9b07      	ldr	r3, [sp, #28]
  100fea:	469b      	mov	fp, r3
  100fec:	465a      	mov	r2, fp
  100fee:	2a00      	cmp	r2, #0
  100ff0:	d115      	bne	10101e <.text+0x101e>
  100ff2:	2300      	mov	r3, #0
  100ff4:	9308      	str	r3, [sp, #32]
  100ff6:	e572      	b	100ade <.text+0xade>
  100ff8:	9804      	ldr	r0, [sp, #16]
  100ffa:	2310      	mov	r3, #16
  100ffc:	4318      	orr	r0, r3
  100ffe:	9004      	str	r0, [sp, #16]
  101000:	3701      	add	r7, #1
  101002:	783a      	ldrb	r2, [r7, #0]
  101004:	fb0af7ff 	bl	10061c <_vfiprintf_r+0x168>
  101008:	2006      	mov	r0, #6
  10100a:	4b3d      	ldr	r3, [pc, #244]	(101100 <.text+0x1100>)
  10100c:	4683      	mov	fp, r0
  10100e:	4682      	mov	sl, r0
  101010:	9303      	str	r3, [sp, #12]
  101012:	fb1ef7ff 	bl	100652 <_vfiprintf_r+0x19e>
  101016:	4a39      	ldr	r2, [pc, #228]	(1010fc <.text+0x10fc>)
  101018:	446a      	add	r2, sp
  10101a:	9203      	str	r2, [sp, #12]
  10101c:	e71e      	b	100e5c <.text+0xe5c>
  10101e:	4659      	mov	r1, fp
  101020:	3101      	add	r1, #1
  101022:	9801      	ldr	r0, [sp, #4]
  101024:	ffaef000 	bl	101f84 <_malloc_r>
  101028:	2800      	cmp	r0, #0
  10102a:	d03d      	beq	1010a8 <.text+0x10a8>
  10102c:	900a      	str	r0, [sp, #40]
  10102e:	2100      	mov	r1, #0
  101030:	2208      	mov	r2, #8
  101032:	4650      	mov	r0, sl
  101034:	fae6f001 	bl	102604 <memset>
  101038:	4652      	mov	r2, sl
  10103a:	9200      	str	r2, [sp, #0]
  10103c:	22a2      	mov	r2, #162
  10103e:	00d2      	lsl	r2, r2, #3
  101040:	9801      	ldr	r0, [sp, #4]
  101042:	990a      	ldr	r1, [sp, #40]
  101044:	446a      	add	r2, sp
  101046:	465b      	mov	r3, fp
  101048:	f896f000 	bl	101178 <_wcsrtombs_r>
  10104c:	4583      	cmp	fp, r0
  10104e:	d141      	bne	1010d4 <.text+0x10d4>
  101050:	9a0a      	ldr	r2, [sp, #40]
  101052:	2300      	mov	r3, #0
  101054:	4658      	mov	r0, fp
  101056:	5413      	strb	r3, [r2, r0]
  101058:	9203      	str	r2, [sp, #12]
  10105a:	9308      	str	r3, [sp, #32]
  10105c:	e53f      	b	100ade <.text+0xade>
  10105e:	2200      	mov	r2, #0
  101060:	9207      	str	r2, [sp, #28]
  101062:	faddf7ff 	bl	100620 <_vfiprintf_r+0x16c>
  101066:	9803      	ldr	r0, [sp, #12]
  101068:	fd8ef001 	bl	102b88 <strlen>
  10106c:	4683      	mov	fp, r0
  10106e:	2000      	mov	r0, #0
  101070:	9008      	str	r0, [sp, #32]
  101072:	e534      	b	100ade <.text+0xade>
  101074:	4641      	mov	r1, r8
  101076:	898b      	ldrh	r3, [r1, #12]
  101078:	2240      	mov	r2, #64
  10107a:	4313      	orr	r3, r2
  10107c:	4642      	mov	r2, r8
  10107e:	8193      	strh	r3, [r2, #12]
  101080:	e450      	b	100924 <.text+0x924>
  101082:	22a2      	mov	r2, #162
  101084:	4653      	mov	r3, sl
  101086:	00d2      	lsl	r2, r2, #3
  101088:	9300      	str	r3, [sp, #0]
  10108a:	9801      	ldr	r0, [sp, #4]
  10108c:	2100      	mov	r1, #0
  10108e:	446a      	add	r2, sp
  101090:	2300      	mov	r3, #0
  101092:	f871f000 	bl	101178 <_wcsrtombs_r>
  101096:	4683      	mov	fp, r0
  101098:	3001      	add	r0, #1
  10109a:	d0eb      	beq	101074 <.text+0x1074>
  10109c:	21a2      	mov	r1, #162
  10109e:	9803      	ldr	r0, [sp, #12]
  1010a0:	00c9      	lsl	r1, r1, #3
  1010a2:	4469      	add	r1, sp
  1010a4:	6008      	str	r0, [r1, #0]
  1010a6:	e7a1      	b	100fec <.text+0xfec>
  1010a8:	4640      	mov	r0, r8
  1010aa:	8983      	ldrh	r3, [r0, #12]
  1010ac:	2240      	mov	r2, #64
  1010ae:	4313      	orr	r3, r2
  1010b0:	4641      	mov	r1, r8
  1010b2:	818b      	strh	r3, [r1, #12]
  1010b4:	e436      	b	100924 <.text+0x924>
  1010b6:	4650      	mov	r0, sl
  1010b8:	6800      	ldr	r0, [r0, #0]
  1010ba:	4653      	mov	r3, sl
  1010bc:	3304      	add	r3, #4
  1010be:	9007      	str	r0, [sp, #28]
  1010c0:	2800      	cmp	r0, #0
  1010c2:	db00      	blt	1010c6 <.text+0x10c6>
  1010c4:	e582      	b	100bcc <.text+0xbcc>
  1010c6:	2201      	mov	r2, #1
  1010c8:	4252      	neg	r2, r2
  1010ca:	9207      	str	r2, [sp, #28]
  1010cc:	783a      	ldrb	r2, [r7, #0]
  1010ce:	469a      	mov	sl, r3
  1010d0:	faa4f7ff 	bl	10061c <_vfiprintf_r+0x168>
  1010d4:	4640      	mov	r0, r8
  1010d6:	8983      	ldrh	r3, [r0, #12]
  1010d8:	2240      	mov	r2, #64
  1010da:	4313      	orr	r3, r2
  1010dc:	4641      	mov	r1, r8
  1010de:	818b      	strh	r3, [r1, #12]
  1010e0:	e41c      	b	10091c <.text+0x91c>
  1010e2:	0000      	lsl	r0, r0, #0
  1010e4:	04f4      	lsl	r4, r6, #19
  1010e6:	0000      	lsl	r0, r0, #0
  1010e8:	04fc      	lsl	r4, r7, #19
  1010ea:	0000      	lsl	r0, r0, #0
  1010ec:	048c      	lsl	r4, r1, #18
  1010ee:	0000      	lsl	r0, r0, #0
  1010f0:	3018      	add	r0, #24
  1010f2:	0010      	lsl	r0, r2, #0
  1010f4:	04cc      	lsl	r4, r1, #19
  1010f6:	0000      	lsl	r0, r0, #0
  1010f8:	3028      	add	r0, #40
  1010fa:	0010      	lsl	r0, r2, #0
  1010fc:	04f3      	lsl	r3, r6, #19
  1010fe:	0000      	lsl	r0, r0, #0
  101100:	2eac      	cmp	r6, #172
  101102:	0010      	lsl	r0, r2, #0

00101104 <vfiprintf>:
  101104:	b530      	push	{r4, r5, lr}
  101106:	1c13      	mov	r3, r2		(add r3, r2, #0)
  101108:	4a05      	ldr	r2, [pc, #20]	(101120 <.text+0x1120>)
  10110a:	1c0d      	mov	r5, r1		(add r5, r1, #0)
  10110c:	1c04      	mov	r4, r0		(add r4, r0, #0)
  10110e:	1c21      	mov	r1, r4		(add r1, r4, #0)
  101110:	6810      	ldr	r0, [r2, #0]
  101112:	1c2a      	mov	r2, r5		(add r2, r5, #0)
  101114:	f9cef7ff 	bl	1004b4 <_vfiprintf_r>
  101118:	bc30      	pop	{r4, r5}
  10111a:	bc02      	pop	{r1}
  10111c:	4708      	bx	r1
  10111e:	0000      	lsl	r0, r0, #0
  101120:	0060      	lsl	r0, r4, #1
  101122:	0020      	lsl	r0, r4, #0

00101124 <_wcrtomb_r>:
  101124:	b530      	push	{r4, r5, lr}
  101126:	b083      	sub	sp, #12
  101128:	1c05      	mov	r5, r0		(add r5, r0, #0)
  10112a:	1c1c      	mov	r4, r3		(add r4, r3, #0)
  10112c:	2900      	cmp	r1, #0
  10112e:	d00d      	beq	10114c <_wcrtomb_r+0x28>
  101130:	f8a8f000 	bl	101284 <_wctomb_r>
  101134:	1c43      	add	r3, r0, #1
  101136:	d105      	bne	101144 <_wcrtomb_r+0x20>
  101138:	2300      	mov	r3, #0
  10113a:	6023      	str	r3, [r4, #0]
  10113c:	238a      	mov	r3, #138
  10113e:	2001      	mov	r0, #1
  101140:	602b      	str	r3, [r5, #0]
  101142:	4240      	neg	r0, r0
  101144:	b003      	add	sp, #12
  101146:	bc30      	pop	{r4, r5}
  101148:	bc02      	pop	{r1}
  10114a:	4708      	bx	r1
  10114c:	4669      	mov	r1, sp
  10114e:	3102      	add	r1, #2
  101150:	2200      	mov	r2, #0
  101152:	f897f000 	bl	101284 <_wctomb_r>
  101156:	e7ed      	b	101134 <_wcrtomb_r+0x10>

00101158 <wcrtomb>:
  101158:	b530      	push	{r4, r5, lr}
  10115a:	1c13      	mov	r3, r2		(add r3, r2, #0)
  10115c:	4a05      	ldr	r2, [pc, #20]	(101174 <.text+0x1174>)
  10115e:	1c0d      	mov	r5, r1		(add r5, r1, #0)
  101160:	1c04      	mov	r4, r0		(add r4, r0, #0)
  101162:	1c21      	mov	r1, r4		(add r1, r4, #0)
  101164:	6810      	ldr	r0, [r2, #0]
  101166:	1c2a      	mov	r2, r5		(add r2, r5, #0)
  101168:	ffdcf7ff 	bl	101124 <_wcrtomb_r>
  10116c:	bc30      	pop	{r4, r5}
  10116e:	bc02      	pop	{r1}
  101170:	4708      	bx	r1
  101172:	0000      	lsl	r0, r0, #0
  101174:	0060      	lsl	r0, r4, #1
  101176:	0020      	lsl	r0, r4, #0

00101178 <_wcsrtombs_r>:
  101178:	b5f0      	push	{r4, r5, r6, r7, lr}
  10117a:	465f      	mov	r7, fp
  10117c:	4656      	mov	r6, sl
  10117e:	464d      	mov	r5, r9
  101180:	4644      	mov	r4, r8
  101182:	b4f0      	push	{r4, r5, r6, r7}
  101184:	b086      	sub	sp, #24
  101186:	9002      	str	r0, [sp, #8]
  101188:	468b      	mov	fp, r1
  10118a:	9201      	str	r2, [sp, #4]
  10118c:	1c1d      	mov	r5, r3		(add r5, r3, #0)
  10118e:	9f0f      	ldr	r7, [sp, #60]
  101190:	2900      	cmp	r1, #0
  101192:	d047      	beq	101224 <_wcsrtombs_r+0xac>
  101194:	6811      	ldr	r1, [r2, #0]
  101196:	4688      	mov	r8, r1
  101198:	2b00      	cmp	r3, #0
  10119a:	d052      	beq	101242 <_wcsrtombs_r+0xca>
  10119c:	2200      	mov	r2, #0
  10119e:	9200      	str	r2, [sp, #0]
  1011a0:	465c      	mov	r4, fp
  1011a2:	683a      	ldr	r2, [r7, #0]
  1011a4:	687b      	ldr	r3, [r7, #4]
  1011a6:	4646      	mov	r6, r8
  1011a8:	4669      	mov	r1, sp
  1011aa:	4691      	mov	r9, r2
  1011ac:	469a      	mov	sl, r3
  1011ae:	310e      	add	r1, #14
  1011b0:	6832      	ldr	r2, [r6, #0]
  1011b2:	9802      	ldr	r0, [sp, #8]
  1011b4:	1c3b      	mov	r3, r7		(add r3, r7, #0)
  1011b6:	ffb5f7ff 	bl	101124 <_wcrtomb_r>
  1011ba:	1c41      	add	r1, r0, #1
  1011bc:	d038      	beq	101230 <_wcsrtombs_r+0xb8>
  1011be:	9a00      	ldr	r2, [sp, #0]
  1011c0:	1a2b      	sub	r3, r5, r0
  1011c2:	4293      	cmp	r3, r2
  1011c4:	d320      	bcc	101208 <_wcsrtombs_r+0x90>
  1011c6:	42a8      	cmp	r0, r5
  1011c8:	d21e      	bcs	101208 <_wcsrtombs_r+0x90>
  1011ca:	1812      	add	r2, r2, r0
  1011cc:	465b      	mov	r3, fp
  1011ce:	9200      	str	r2, [sp, #0]
  1011d0:	2b00      	cmp	r3, #0
  1011d2:	d00f      	beq	1011f4 <_wcsrtombs_r+0x7c>
  1011d4:	2800      	cmp	r0, #0
  1011d6:	dd09      	ble	1011ec <_wcsrtombs_r+0x74>
  1011d8:	2200      	mov	r2, #0
  1011da:	260e      	mov	r6, #14
  1011dc:	18b6      	add	r6, r6, r2
  1011de:	4669      	mov	r1, sp
  1011e0:	5c73      	ldrb	r3, [r6, r1]
  1011e2:	3201      	add	r2, #1
  1011e4:	7023      	strb	r3, [r4, #0]
  1011e6:	3401      	add	r4, #1
  1011e8:	4290      	cmp	r0, r2
  1011ea:	d1f6      	bne	1011da <_wcsrtombs_r+0x62>
  1011ec:	9a01      	ldr	r2, [sp, #4]
  1011ee:	6813      	ldr	r3, [r2, #0]
  1011f0:	3304      	add	r3, #4
  1011f2:	6013      	str	r3, [r2, #0]
  1011f4:	4646      	mov	r6, r8
  1011f6:	6833      	ldr	r3, [r6, #0]
  1011f8:	2b00      	cmp	r3, #0
  1011fa:	d025      	beq	101248 <_wcsrtombs_r+0xd0>
  1011fc:	9a00      	ldr	r2, [sp, #0]
  1011fe:	42aa      	cmp	r2, r5
  101200:	d206      	bcs	101210 <_wcsrtombs_r+0x98>
  101202:	2304      	mov	r3, #4
  101204:	4498      	add	r8, r3
  101206:	e7cc      	b	1011a2 <_wcsrtombs_r+0x2a>
  101208:	464e      	mov	r6, r9
  10120a:	4651      	mov	r1, sl
  10120c:	603e      	str	r6, [r7, #0]
  10120e:	6079      	str	r1, [r7, #4]
  101210:	9800      	ldr	r0, [sp, #0]
  101212:	b006      	add	sp, #24
  101214:	bc3c      	pop	{r2, r3, r4, r5}
  101216:	4690      	mov	r8, r2
  101218:	4699      	mov	r9, r3
  10121a:	46a2      	mov	sl, r4
  10121c:	46ab      	mov	fp, r5
  10121e:	bcf0      	pop	{r4, r5, r6, r7}
  101220:	bc02      	pop	{r1}
  101222:	4708      	bx	r1
  101224:	9901      	ldr	r1, [sp, #4]
  101226:	6809      	ldr	r1, [r1, #0]
  101228:	2501      	mov	r5, #1
  10122a:	4688      	mov	r8, r1
  10122c:	426d      	neg	r5, r5
  10122e:	e7b5      	b	10119c <_wcsrtombs_r+0x24>
  101230:	9e02      	ldr	r6, [sp, #8]
  101232:	238a      	mov	r3, #138
  101234:	2101      	mov	r1, #1
  101236:	6033      	str	r3, [r6, #0]
  101238:	4249      	neg	r1, r1
  10123a:	2300      	mov	r3, #0
  10123c:	603b      	str	r3, [r7, #0]
  10123e:	9100      	str	r1, [sp, #0]
  101240:	e7e6      	b	101210 <_wcsrtombs_r+0x98>
  101242:	2600      	mov	r6, #0
  101244:	9600      	str	r6, [sp, #0]
  101246:	e7e3      	b	101210 <_wcsrtombs_r+0x98>
  101248:	4659      	mov	r1, fp
  10124a:	2900      	cmp	r1, #0
  10124c:	d001      	beq	101252 <_wcsrtombs_r+0xda>
  10124e:	9a01      	ldr	r2, [sp, #4]
  101250:	6013      	str	r3, [r2, #0]
  101252:	603b      	str	r3, [r7, #0]
  101254:	9b00      	ldr	r3, [sp, #0]
  101256:	3b01      	sub	r3, #1
  101258:	9300      	str	r3, [sp, #0]
  10125a:	e7d9      	b	101210 <_wcsrtombs_r+0x98>

0010125c <wcsrtombs>:
  10125c:	b570      	push	{r4, r5, r6, lr}
  10125e:	1c16      	mov	r6, r2		(add r6, r2, #0)
  101260:	4a07      	ldr	r2, [pc, #28]	(101280 <.text+0x1280>)
  101262:	1c0d      	mov	r5, r1		(add r5, r1, #0)
  101264:	b081      	sub	sp, #4
  101266:	1c04      	mov	r4, r0		(add r4, r0, #0)
  101268:	1c21      	mov	r1, r4		(add r1, r4, #0)
  10126a:	6810      	ldr	r0, [r2, #0]
  10126c:	9300      	str	r3, [sp, #0]
  10126e:	1c2a      	mov	r2, r5		(add r2, r5, #0)
  101270:	1c33      	mov	r3, r6		(add r3, r6, #0)
  101272:	ff81f7ff 	bl	101178 <_wcsrtombs_r>
  101276:	b001      	add	sp, #4
  101278:	bc70      	pop	{r4, r5, r6}
  10127a:	bc02      	pop	{r1}
  10127c:	4708      	bx	r1
  10127e:	0000      	lsl	r0, r0, #0
  101280:	0060      	lsl	r0, r4, #1
  101282:	0020      	lsl	r0, r4, #0

00101284 <_wctomb_r>:
  101284:	b5f0      	push	{r4, r5, r6, r7, lr}
  101286:	4c9e      	ldr	r4, [pc, #632]	(101500 <.text+0x1500>)
  101288:	1c20      	mov	r0, r4		(add r0, r4, #0)
  10128a:	1c0e      	mov	r6, r1		(add r6, r1, #0)
  10128c:	1c15      	mov	r5, r2		(add r5, r2, #0)
  10128e:	1c1f      	mov	r7, r3		(add r7, r3, #0)
  101290:	fc7af001 	bl	102b88 <strlen>
  101294:	2801      	cmp	r0, #1
  101296:	d91d      	bls	1012d4 <_wctomb_r+0x50>
  101298:	499a      	ldr	r1, [pc, #616]	(101504 <.text+0x1504>)
  10129a:	1c20      	mov	r0, r4		(add r0, r4, #0)
  10129c:	fc40f001 	bl	102b20 <strcmp>
  1012a0:	2800      	cmp	r0, #0
  1012a2:	d11e      	bne	1012e2 <_wctomb_r+0x5e>
  1012a4:	2e00      	cmp	r6, #0
  1012a6:	d03b      	beq	101320 <_wctomb_r+0x9c>
  1012a8:	2d7f      	cmp	r5, #127
  1012aa:	dd15      	ble	1012d8 <_wctomb_r+0x54>
  1012ac:	1c2a      	mov	r2, r5		(add r2, r5, #0)
  1012ae:	4b96      	ldr	r3, [pc, #600]	(101508 <.text+0x1508>)
  1012b0:	3a80      	sub	r2, #128
  1012b2:	429a      	cmp	r2, r3
  1012b4:	d860      	bhi	101378 <_wctomb_r+0xf4>
  1012b6:	056a      	lsl	r2, r5, #21
  1012b8:	2340      	mov	r3, #64
  1012ba:	425b      	neg	r3, r3
  1012bc:	0ed2      	lsr	r2, r2, #27
  1012be:	431a      	orr	r2, r3
  1012c0:	7032      	strb	r2, [r6, #0]
  1012c2:	233f      	mov	r3, #63
  1012c4:	1c2a      	mov	r2, r5		(add r2, r5, #0)
  1012c6:	401a      	and	r2, r3
  1012c8:	2380      	mov	r3, #128
  1012ca:	425b      	neg	r3, r3
  1012cc:	431a      	orr	r2, r3
  1012ce:	2002      	mov	r0, #2
  1012d0:	7072      	strb	r2, [r6, #1]
  1012d2:	e003      	b	1012dc <_wctomb_r+0x58>
  1012d4:	2e00      	cmp	r6, #0
  1012d6:	d023      	beq	101320 <_wctomb_r+0x9c>
  1012d8:	7035      	strb	r5, [r6, #0]
  1012da:	2001      	mov	r0, #1
  1012dc:	bcf0      	pop	{r4, r5, r6, r7}
  1012de:	bc02      	pop	{r1}
  1012e0:	4708      	bx	r1
  1012e2:	498a      	ldr	r1, [pc, #552]	(10150c <.text+0x150c>)
  1012e4:	1c20      	mov	r0, r4		(add r0, r4, #0)
  1012e6:	fc1bf001 	bl	102b20 <strcmp>
  1012ea:	2800      	cmp	r0, #0
  1012ec:	d11a      	bne	101324 <_wctomb_r+0xa0>
  1012ee:	2e00      	cmp	r6, #0
  1012f0:	d016      	beq	101320 <_wctomb_r+0x9c>
  1012f2:	042b      	lsl	r3, r5, #16
  1012f4:	0e1a      	lsr	r2, r3, #24
  1012f6:	2a00      	cmp	r2, #0
  1012f8:	d0ee      	beq	1012d8 <_wctomb_r+0x54>
  1012fa:	1c13      	mov	r3, r2		(add r3, r2, #0)
  1012fc:	337f      	add	r3, #127
  1012fe:	061b      	lsl	r3, r3, #24
  101300:	0e1b      	lsr	r3, r3, #24
  101302:	2b1e      	cmp	r3, #30
  101304:	d865      	bhi	1013d2 <_wctomb_r+0x14e>
  101306:	20c0      	mov	r0, #192
  101308:	062b      	lsl	r3, r5, #24
  10130a:	0600      	lsl	r0, r0, #24
  10130c:	0e19      	lsr	r1, r3, #24
  10130e:	181b      	add	r3, r3, r0
  101310:	0e1b      	lsr	r3, r3, #24
  101312:	2b3e      	cmp	r3, #62
  101314:	d900      	bls	101318 <_wctomb_r+0x94>
  101316:	e0af      	b	101478 <_wctomb_r+0x1f4>
  101318:	2002      	mov	r0, #2
  10131a:	7032      	strb	r2, [r6, #0]
  10131c:	7071      	strb	r1, [r6, #1]
  10131e:	e7dd      	b	1012dc <_wctomb_r+0x58>
  101320:	2000      	mov	r0, #0
  101322:	e7db      	b	1012dc <_wctomb_r+0x58>
  101324:	497a      	ldr	r1, [pc, #488]	(101510 <.text+0x1510>)
  101326:	1c20      	mov	r0, r4		(add r0, r4, #0)
  101328:	fbfaf001 	bl	102b20 <strcmp>
  10132c:	2800      	cmp	r0, #0
  10132e:	d10f      	bne	101350 <_wctomb_r+0xcc>
  101330:	2e00      	cmp	r6, #0
  101332:	d0f5      	beq	101320 <_wctomb_r+0x9c>
  101334:	042b      	lsl	r3, r5, #16
  101336:	0e19      	lsr	r1, r3, #24
  101338:	2900      	cmp	r1, #0
  10133a:	d0cd      	beq	1012d8 <_wctomb_r+0x54>
  10133c:	1c0b      	mov	r3, r1		(add r3, r1, #0)
  10133e:	335f      	add	r3, #95
  101340:	061b      	lsl	r3, r3, #24
  101342:	0e1b      	lsr	r3, r3, #24
  101344:	2b5d      	cmp	r3, #93
  101346:	d800      	bhi	10134a <_wctomb_r+0xc6>
  101348:	e09c      	b	101484 <_wctomb_r+0x200>
  10134a:	2001      	mov	r0, #1
  10134c:	4240      	neg	r0, r0
  10134e:	e7c5      	b	1012dc <_wctomb_r+0x58>
  101350:	4970      	ldr	r1, [pc, #448]	(101514 <.text+0x1514>)
  101352:	1c20      	mov	r0, r4		(add r0, r4, #0)
  101354:	fbe4f001 	bl	102b20 <strcmp>
  101358:	2800      	cmp	r0, #0
  10135a:	d1bb      	bne	1012d4 <_wctomb_r+0x50>
  10135c:	2e00      	cmp	r6, #0
  10135e:	d0bc      	beq	1012da <_wctomb_r+0x56>
  101360:	062b      	lsl	r3, r5, #24
  101362:	0e1c      	lsr	r4, r3, #24
  101364:	042b      	lsl	r3, r5, #16
  101366:	0e19      	lsr	r1, r3, #24
  101368:	2900      	cmp	r1, #0
  10136a:	d139      	bne	1013e0 <_wctomb_r+0x15c>
  10136c:	683b      	ldr	r3, [r7, #0]
  10136e:	2b00      	cmp	r3, #0
  101370:	d123      	bne	1013ba <_wctomb_r+0x136>
  101372:	2001      	mov	r0, #1
  101374:	7034      	strb	r4, [r6, #0]
  101376:	e7b1      	b	1012dc <_wctomb_r+0x58>
  101378:	4867      	ldr	r0, [pc, #412]	(101518 <.text+0x1518>)
  10137a:	4b68      	ldr	r3, [pc, #416]	(10151c <.text+0x151c>)
  10137c:	182a      	add	r2, r5, r0
  10137e:	429a      	cmp	r2, r3
  101380:	d962      	bls	101448 <_wctomb_r+0x1c4>
  101382:	4867      	ldr	r0, [pc, #412]	(101520 <.text+0x1520>)
  101384:	4b67      	ldr	r3, [pc, #412]	(101524 <.text+0x1524>)
  101386:	182a      	add	r2, r5, r0
  101388:	429a      	cmp	r2, r3
  10138a:	d83c      	bhi	101406 <_wctomb_r+0x182>
  10138c:	02ea      	lsl	r2, r5, #11
  10138e:	2310      	mov	r3, #16
  101390:	425b      	neg	r3, r3
  101392:	0f52      	lsr	r2, r2, #29
  101394:	431a      	orr	r2, r3
  101396:	7032      	strb	r2, [r6, #0]
  101398:	03ab      	lsl	r3, r5, #14
  10139a:	2280      	mov	r2, #128
  10139c:	4252      	neg	r2, r2
  10139e:	0e9b      	lsr	r3, r3, #26
  1013a0:	4313      	orr	r3, r2
  1013a2:	7073      	strb	r3, [r6, #1]
  1013a4:	052b      	lsl	r3, r5, #20
  1013a6:	0e9b      	lsr	r3, r3, #26
  1013a8:	1c71      	add	r1, r6, #1
  1013aa:	4313      	orr	r3, r2
  1013ac:	704b      	strb	r3, [r1, #1]
  1013ae:	233f      	mov	r3, #63
  1013b0:	402b      	and	r3, r5
  1013b2:	4313      	orr	r3, r2
  1013b4:	2004      	mov	r0, #4
  1013b6:	708b      	strb	r3, [r1, #2]
  1013b8:	e790      	b	1012dc <_wctomb_r+0x58>
  1013ba:	231b      	mov	r3, #27
  1013bc:	6039      	str	r1, [r7, #0]
  1013be:	1c72      	add	r2, r6, #1
  1013c0:	7033      	strb	r3, [r6, #0]
  1013c2:	2328      	mov	r3, #40
  1013c4:	7073      	strb	r3, [r6, #1]
  1013c6:	2004      	mov	r0, #4
  1013c8:	2342      	mov	r3, #66
  1013ca:	1c96      	add	r6, r2, #2
  1013cc:	7053      	strb	r3, [r2, #1]
  1013ce:	7034      	strb	r4, [r6, #0]
  1013d0:	e784      	b	1012dc <_wctomb_r+0x58>
  1013d2:	1c13      	mov	r3, r2		(add r3, r2, #0)
  1013d4:	3320      	add	r3, #32
  1013d6:	061b      	lsl	r3, r3, #24
  1013d8:	0e1b      	lsr	r3, r3, #24
  1013da:	2b0f      	cmp	r3, #15
  1013dc:	d993      	bls	101306 <_wctomb_r+0x82>
  1013de:	e7b4      	b	10134a <_wctomb_r+0xc6>
  1013e0:	1c0b      	mov	r3, r1		(add r3, r1, #0)
  1013e2:	3b21      	sub	r3, #33
  1013e4:	061b      	lsl	r3, r3, #24
  1013e6:	0e1b      	lsr	r3, r3, #24
  1013e8:	2b5d      	cmp	r3, #93
  1013ea:	d8ae      	bhi	10134a <_wctomb_r+0xc6>
  1013ec:	1c23      	mov	r3, r4		(add r3, r4, #0)
  1013ee:	3b21      	sub	r3, #33
  1013f0:	061b      	lsl	r3, r3, #24
  1013f2:	0e1b      	lsr	r3, r3, #24
  1013f4:	2b5d      	cmp	r3, #93
  1013f6:	d8a8      	bhi	10134a <_wctomb_r+0xc6>
  1013f8:	683b      	ldr	r3, [r7, #0]
  1013fa:	2b00      	cmp	r3, #0
  1013fc:	d04f      	beq	10149e <_wctomb_r+0x21a>
  1013fe:	2002      	mov	r0, #2
  101400:	7031      	strb	r1, [r6, #0]
  101402:	7074      	strb	r4, [r6, #1]
  101404:	e76a      	b	1012dc <_wctomb_r+0x58>
  101406:	4b48      	ldr	r3, [pc, #288]	(101528 <.text+0x1528>)
  101408:	18ea      	add	r2, r5, r3
  10140a:	4b48      	ldr	r3, [pc, #288]	(10152c <.text+0x152c>)
  10140c:	429a      	cmp	r2, r3
  10140e:	d852      	bhi	1014b6 <_wctomb_r+0x232>
  101410:	01aa      	lsl	r2, r5, #6
  101412:	2308      	mov	r3, #8
  101414:	425b      	neg	r3, r3
  101416:	0f92      	lsr	r2, r2, #30
  101418:	431a      	orr	r2, r3
  10141a:	7032      	strb	r2, [r6, #0]
  10141c:	022b      	lsl	r3, r5, #8
  10141e:	2280      	mov	r2, #128
  101420:	4252      	neg	r2, r2
  101422:	0e9b      	lsr	r3, r3, #26
  101424:	4313      	orr	r3, r2
  101426:	7073      	strb	r3, [r6, #1]
  101428:	03ab      	lsl	r3, r5, #14
  10142a:	0e9b      	lsr	r3, r3, #26
  10142c:	1c71      	add	r1, r6, #1
  10142e:	4313      	orr	r3, r2
  101430:	704b      	strb	r3, [r1, #1]
  101432:	052b      	lsl	r3, r5, #20
  101434:	0e9b      	lsr	r3, r3, #26
  101436:	1c48      	add	r0, r1, #1
  101438:	4313      	orr	r3, r2
  10143a:	7043      	strb	r3, [r0, #1]
  10143c:	233f      	mov	r3, #63
  10143e:	402b      	and	r3, r5
  101440:	4313      	orr	r3, r2
  101442:	7083      	strb	r3, [r0, #2]
  101444:	2005      	mov	r0, #5
  101446:	e749      	b	1012dc <_wctomb_r+0x58>
  101448:	4b39      	ldr	r3, [pc, #228]	(101530 <.text+0x1530>)
  10144a:	18ea      	add	r2, r5, r3
  10144c:	4b39      	ldr	r3, [pc, #228]	(101534 <.text+0x1534>)
  10144e:	429a      	cmp	r2, r3
  101450:	d800      	bhi	101454 <_wctomb_r+0x1d0>
  101452:	e77a      	b	10134a <_wctomb_r+0xc6>
  101454:	042a      	lsl	r2, r5, #16
  101456:	2320      	mov	r3, #32
  101458:	425b      	neg	r3, r3
  10145a:	0f12      	lsr	r2, r2, #28
  10145c:	431a      	orr	r2, r3
  10145e:	7032      	strb	r2, [r6, #0]
  101460:	052b      	lsl	r3, r5, #20
  101462:	2280      	mov	r2, #128
  101464:	4252      	neg	r2, r2
  101466:	0e9b      	lsr	r3, r3, #26
  101468:	4313      	orr	r3, r2
  10146a:	7073      	strb	r3, [r6, #1]
  10146c:	233f      	mov	r3, #63
  10146e:	402b      	and	r3, r5
  101470:	4313      	orr	r3, r2
  101472:	2003      	mov	r0, #3
  101474:	70b3      	strb	r3, [r6, #2]
  101476:	e731      	b	1012dc <_wctomb_r+0x58>
  101478:	2380      	mov	r3, #128
  10147a:	404b      	eor	r3, r1
  10147c:	2b7c      	cmp	r3, #124
  10147e:	d800      	bhi	101482 <_wctomb_r+0x1fe>
  101480:	e74a      	b	101318 <_wctomb_r+0x94>
  101482:	e762      	b	10134a <_wctomb_r+0xc6>
  101484:	20be      	mov	r0, #190
  101486:	062b      	lsl	r3, r5, #24
  101488:	05c0      	lsl	r0, r0, #23
  10148a:	0e1a      	lsr	r2, r3, #24
  10148c:	181b      	add	r3, r3, r0
  10148e:	0e1b      	lsr	r3, r3, #24
  101490:	2b5d      	cmp	r3, #93
  101492:	d900      	bls	101496 <_wctomb_r+0x212>
  101494:	e759      	b	10134a <_wctomb_r+0xc6>
  101496:	2002      	mov	r0, #2
  101498:	7031      	strb	r1, [r6, #0]
  10149a:	7072      	strb	r2, [r6, #1]
  10149c:	e71e      	b	1012dc <_wctomb_r+0x58>
  10149e:	2301      	mov	r3, #1
  1014a0:	603b      	str	r3, [r7, #0]
  1014a2:	231b      	mov	r3, #27
  1014a4:	7033      	strb	r3, [r6, #0]
  1014a6:	1c72      	add	r2, r6, #1
  1014a8:	2324      	mov	r3, #36
  1014aa:	7073      	strb	r3, [r6, #1]
  1014ac:	2005      	mov	r0, #5
  1014ae:	2342      	mov	r3, #66
  1014b0:	1c96      	add	r6, r2, #2
  1014b2:	7053      	strb	r3, [r2, #1]
  1014b4:	e7a4      	b	101400 <_wctomb_r+0x17c>
  1014b6:	4b20      	ldr	r3, [pc, #128]	(101538 <.text+0x1538>)
  1014b8:	429d      	cmp	r5, r3
  1014ba:	dc00      	bgt	1014be <_wctomb_r+0x23a>
  1014bc:	e745      	b	10134a <_wctomb_r+0xc6>
  1014be:	006a      	lsl	r2, r5, #1
  1014c0:	2304      	mov	r3, #4
  1014c2:	425b      	neg	r3, r3
  1014c4:	0fd2      	lsr	r2, r2, #31
  1014c6:	431a      	orr	r2, r3
  1014c8:	7032      	strb	r2, [r6, #0]
  1014ca:	00ab      	lsl	r3, r5, #2
  1014cc:	2280      	mov	r2, #128
  1014ce:	4252      	neg	r2, r2
  1014d0:	0e9b      	lsr	r3, r3, #26
  1014d2:	4313      	orr	r3, r2
  1014d4:	7073      	strb	r3, [r6, #1]
  1014d6:	022b      	lsl	r3, r5, #8
  1014d8:	0e9b      	lsr	r3, r3, #26
  1014da:	1c71      	add	r1, r6, #1
  1014dc:	4313      	orr	r3, r2
  1014de:	704b      	strb	r3, [r1, #1]
  1014e0:	03ab      	lsl	r3, r5, #14
  1014e2:	0e9b      	lsr	r3, r3, #26
  1014e4:	1c48      	add	r0, r1, #1
  1014e6:	4313      	orr	r3, r2
  1014e8:	7043      	strb	r3, [r0, #1]
  1014ea:	052b      	lsl	r3, r5, #20
  1014ec:	0e9b      	lsr	r3, r3, #26
  1014ee:	1c41      	add	r1, r0, #1
  1014f0:	4313      	orr	r3, r2
  1014f2:	704b      	strb	r3, [r1, #1]
  1014f4:	233f      	mov	r3, #63
  1014f6:	402b      	and	r3, r5
  1014f8:	4313      	orr	r3, r2
  1014fa:	2006      	mov	r0, #6
  1014fc:	708b      	strb	r3, [r1, #2]
  1014fe:	e6ed      	b	1012dc <_wctomb_r+0x58>
  101500:	0468      	lsl	r0, r5, #17
  101502:	0020      	lsl	r0, r4, #0
  101504:	3038      	add	r0, #56
  101506:	0010      	lsl	r0, r2, #0
  101508:	077f      	lsl	r7, r7, #29
  10150a:	0000      	lsl	r0, r0, #0
  10150c:	3040      	add	r0, #64
  10150e:	0010      	lsl	r0, r2, #0
  101510:	3048      	add	r0, #72
  101512:	0010      	lsl	r0, r2, #0
  101514:	3050      	add	r0, #80
  101516:	0010      	lsl	r0, r2, #0
  101518:	f800      	second half of BL instruction 0xf800
  10151a:	ffff      	second half of BL instruction 0xffff
  10151c:	0000f7ff 	blx	100520 <_vfiprintf_r+0x6c>
  101520:	0000      	lsl	r0, r0, #0
  101522:	ffff      	second half of BL instruction 0xffff
  101524:	ffff      	second half of BL instruction 0xffff
  101526:	001e      	lsl	r6, r3, #0
  101528:	0000      	lsl	r0, r0, #0
  10152a:	ffe0      	second half of BL instruction 0xffe0
  10152c:	ffff      	second half of BL instruction 0xffff
  10152e:	03df      	lsl	r7, r3, #15
  101530:	2800      	cmp	r0, #0
  101532:	ffff      	second half of BL instruction 0xffff
  101534:	07ff      	lsl	r7, r7, #31
  101536:	0000      	lsl	r0, r0, #0
  101538:	ffff      	second half of BL instruction 0xffff
  10153a:	03ff      	lsl	r7, r7, #15

0010153c <__swsetup>:
  10153c:	b570      	push	{r4, r5, r6, lr}
  10153e:	4d26      	ldr	r5, [pc, #152]	(1015d8 <.text+0x15d8>)
  101540:	1c04      	mov	r4, r0		(add r4, r0, #0)
  101542:	6828      	ldr	r0, [r5, #0]
  101544:	2800      	cmp	r0, #0
  101546:	d002      	beq	10154e <__swsetup+0x12>
  101548:	6b83      	ldr	r3, [r0, #56]
  10154a:	2b00      	cmp	r3, #0
  10154c:	d01b      	beq	101586 <__swsetup+0x4a>
  10154e:	89a2      	ldrh	r2, [r4, #12]
  101550:	2308      	mov	r3, #8
  101552:	1c16      	mov	r6, r2		(add r6, r2, #0)
  101554:	401e      	and	r6, r3
  101556:	d01d      	beq	101594 <__swsetup+0x58>
  101558:	6921      	ldr	r1, [r4, #16]
  10155a:	2900      	cmp	r1, #0
  10155c:	d016      	beq	10158c <__swsetup+0x50>
  10155e:	89a3      	ldrh	r3, [r4, #12]
  101560:	07da      	lsl	r2, r3, #31
  101562:	d405      	bmi	101570 <__swsetup+0x34>
  101564:	079a      	lsl	r2, r3, #30
  101566:	d50c      	bpl	101582 <__swsetup+0x46>
  101568:	2300      	mov	r3, #0
  10156a:	2000      	mov	r0, #0
  10156c:	60a3      	str	r3, [r4, #8]
  10156e:	e005      	b	10157c <__swsetup+0x40>
  101570:	2300      	mov	r3, #0
  101572:	60a3      	str	r3, [r4, #8]
  101574:	6963      	ldr	r3, [r4, #20]
  101576:	425b      	neg	r3, r3
  101578:	61a3      	str	r3, [r4, #24]
  10157a:	2000      	mov	r0, #0
  10157c:	bc70      	pop	{r4, r5, r6}
  10157e:	bc02      	pop	{r1}
  101580:	4708      	bx	r1
  101582:	6963      	ldr	r3, [r4, #20]
  101584:	e7f1      	b	10156a <__swsetup+0x2e>
  101586:	f895f000 	bl	1016b4 <__sinit>
  10158a:	e7e0      	b	10154e <__swsetup+0x12>
  10158c:	1c20      	mov	r0, r4		(add r0, r4, #0)
  10158e:	fc8bf000 	bl	101ea8 <__smakebuf>
  101592:	e7e4      	b	10155e <__swsetup+0x22>
  101594:	06d3      	lsl	r3, r2, #27
  101596:	d51b      	bpl	1015d0 <__swsetup+0x94>
  101598:	0753      	lsl	r3, r2, #29
  10159a:	d517      	bpl	1015cc <__swsetup+0x90>
  10159c:	6b21      	ldr	r1, [r4, #48]
  10159e:	2900      	cmp	r1, #0
  1015a0:	d008      	beq	1015b4 <__swsetup+0x78>
  1015a2:	1c23      	mov	r3, r4		(add r3, r4, #0)
  1015a4:	3340      	add	r3, #64
  1015a6:	4299      	cmp	r1, r3
  1015a8:	d003      	beq	1015b2 <__swsetup+0x76>
  1015aa:	6828      	ldr	r0, [r5, #0]
  1015ac:	f990f000 	bl	1018d0 <_free_r>
  1015b0:	89a2      	ldrh	r2, [r4, #12]
  1015b2:	6326      	str	r6, [r4, #48]
  1015b4:	2324      	mov	r3, #36
  1015b6:	439a      	bic	r2, r3
  1015b8:	81a2      	strh	r2, [r4, #12]
  1015ba:	6921      	ldr	r1, [r4, #16]
  1015bc:	2300      	mov	r3, #0
  1015be:	6063      	str	r3, [r4, #4]
  1015c0:	6021      	str	r1, [r4, #0]
  1015c2:	89a2      	ldrh	r2, [r4, #12]
  1015c4:	2308      	mov	r3, #8
  1015c6:	4313      	orr	r3, r2
  1015c8:	81a3      	strh	r3, [r4, #12]
  1015ca:	e7c6      	b	10155a <__swsetup+0x1e>
  1015cc:	6921      	ldr	r1, [r4, #16]
  1015ce:	e7f9      	b	1015c4 <__swsetup+0x88>
  1015d0:	2001      	mov	r0, #1
  1015d2:	4240      	neg	r0, r0
  1015d4:	e7d2      	b	10157c <__swsetup+0x40>
  1015d6:	0000      	lsl	r0, r0, #0
  1015d8:	0060      	lsl	r0, r4, #1
  1015da:	0020      	lsl	r0, r4, #0

001015dc <fflush>:
  1015dc:	b570      	push	{r4, r5, r6, lr}
  1015de:	1c06      	mov	r6, r0		(add r6, r0, #0)
  1015e0:	2800      	cmp	r0, #0
  1015e2:	d034      	beq	10164e <fflush+0x72>
  1015e4:	4b1d      	ldr	r3, [pc, #116]	(10165c <.text+0x165c>)
  1015e6:	6818      	ldr	r0, [r3, #0]
  1015e8:	2800      	cmp	r0, #0
  1015ea:	d002      	beq	1015f2 <fflush+0x16>
  1015ec:	6b83      	ldr	r3, [r0, #56]
  1015ee:	2b00      	cmp	r3, #0
  1015f0:	d02a      	beq	101648 <fflush+0x6c>
  1015f2:	230c      	mov	r3, #12
  1015f4:	5ef2      	ldrsh	r2, [r6, r3]
  1015f6:	0713      	lsl	r3, r2, #28
  1015f8:	d520      	bpl	10163c <fflush+0x60>
  1015fa:	6935      	ldr	r5, [r6, #16]
  1015fc:	2d00      	cmp	r5, #0
  1015fe:	d01d      	beq	10163c <fflush+0x60>
  101600:	6833      	ldr	r3, [r6, #0]
  101602:	1b5c      	sub	r4, r3, r5
  101604:	2303      	mov	r3, #3
  101606:	6035      	str	r5, [r6, #0]
  101608:	421a      	tst	r2, r3
  10160a:	d01b      	beq	101644 <fflush+0x68>
  10160c:	2300      	mov	r3, #0
  10160e:	60b3      	str	r3, [r6, #8]
  101610:	2c00      	cmp	r4, #0
  101612:	dc04      	bgt	10161e <fflush+0x42>
  101614:	e012      	b	10163c <fflush+0x60>
  101616:	1a24      	sub	r4, r4, r0
  101618:	2c00      	cmp	r4, #0
  10161a:	dd0f      	ble	10163c <fflush+0x60>
  10161c:	182d      	add	r5, r5, r0
  10161e:	69f0      	ldr	r0, [r6, #28]
  101620:	6a73      	ldr	r3, [r6, #36]
  101622:	1c29      	mov	r1, r5		(add r1, r5, #0)
  101624:	1c22      	mov	r2, r4		(add r2, r4, #0)
  101626:	f81ff000 	bl	101668 <.text+0x1668>
  10162a:	2800      	cmp	r0, #0
  10162c:	dcf3      	bgt	101616 <fflush+0x3a>
  10162e:	89b3      	ldrh	r3, [r6, #12]
  101630:	2240      	mov	r2, #64
  101632:	2001      	mov	r0, #1
  101634:	4313      	orr	r3, r2
  101636:	4240      	neg	r0, r0
  101638:	81b3      	strh	r3, [r6, #12]
  10163a:	e000      	b	10163e <fflush+0x62>
  10163c:	2000      	mov	r0, #0
  10163e:	bc70      	pop	{r4, r5, r6}
  101640:	bc02      	pop	{r1}
  101642:	4708      	bx	r1
  101644:	6973      	ldr	r3, [r6, #20]
  101646:	e7e2      	b	10160e <fflush+0x32>
  101648:	f834f000 	bl	1016b4 <__sinit>
  10164c:	e7d1      	b	1015f2 <fflush+0x16>
  10164e:	4b04      	ldr	r3, [pc, #16]	(101660 <.text+0x1660>)
  101650:	4904      	ldr	r1, [pc, #16]	(101664 <.text+0x1664>)
  101652:	6818      	ldr	r0, [r3, #0]
  101654:	fba8f000 	bl	101da8 <_fwalk>
  101658:	e7f1      	b	10163e <fflush+0x62>
  10165a:	0000      	lsl	r0, r0, #0
  10165c:	0060      	lsl	r0, r4, #1
  10165e:	0020      	lsl	r0, r4, #0
  101660:	3058      	add	r0, #88
  101662:	0010      	lsl	r0, r2, #0
  101664:	15dd      	asr	r5, r3, #23
  101666:	0010      	lsl	r0, r2, #0
  101668:	4718      	bx	r3
  10166a:	46c0      	nop			(mov r8, r8)

0010166c <std>:
  10166c:	2300      	mov	r3, #0
  10166e:	6003      	str	r3, [r0, #0]
  101670:	6043      	str	r3, [r0, #4]
  101672:	6083      	str	r3, [r0, #8]
  101674:	6103      	str	r3, [r0, #16]
  101676:	6143      	str	r3, [r0, #20]
  101678:	6183      	str	r3, [r0, #24]
  10167a:	4b06      	ldr	r3, [pc, #24]	(101694 <.text+0x1694>)
  10167c:	6203      	str	r3, [r0, #32]
  10167e:	4b06      	ldr	r3, [pc, #24]	(101698 <.text+0x1698>)
  101680:	6243      	str	r3, [r0, #36]
  101682:	4b06      	ldr	r3, [pc, #24]	(10169c <.text+0x169c>)
  101684:	6283      	str	r3, [r0, #40]
  101686:	4b06      	ldr	r3, [pc, #24]	(1016a0 <.text+0x16a0>)
  101688:	8181      	strh	r1, [r0, #12]
  10168a:	81c2      	strh	r2, [r0, #14]
  10168c:	61c0      	str	r0, [r0, #28]
  10168e:	62c3      	str	r3, [r0, #44]
  101690:	4770      	bx	lr
  101692:	0000      	lsl	r0, r0, #0
  101694:	2ae9      	cmp	r2, #233
  101696:	0010      	lsl	r0, r2, #0
  101698:	2aa1      	cmp	r2, #161
  10169a:	0010      	lsl	r0, r2, #0
  10169c:	2a61      	cmp	r2, #97
  10169e:	0010      	lsl	r0, r2, #0
  1016a0:	2a49      	cmp	r2, #73
  1016a2:	0010      	lsl	r0, r2, #0

001016a4 <__sfp_lock_acquire>:
  1016a4:	4770      	bx	lr
	...

001016a8 <__sfp_lock_release>:
  1016a8:	4770      	bx	lr
	...

001016ac <__sinit_lock_acquire>:
  1016ac:	4770      	bx	lr
	...

001016b0 <__sinit_lock_release>:
  1016b0:	4770      	bx	lr
	...

001016b4 <__sinit>:
  1016b4:	b510      	push	{r4, lr}
  1016b6:	6b82      	ldr	r2, [r0, #56]
  1016b8:	1c04      	mov	r4, r0		(add r4, r0, #0)
  1016ba:	2a00      	cmp	r2, #0
  1016bc:	d122      	bne	101704 <__sinit+0x50>
  1016be:	4b13      	ldr	r3, [pc, #76]	(10170c <.text+0x170c>)
  1016c0:	63c3      	str	r3, [r0, #60]
  1016c2:	2301      	mov	r3, #1
  1016c4:	6383      	str	r3, [r0, #56]
  1016c6:	23b8      	mov	r3, #184
  1016c8:	009b      	lsl	r3, r3, #2
  1016ca:	50c2      	str	r2, [r0, r3]
  1016cc:	23b9      	mov	r3, #185
  1016ce:	009b      	lsl	r3, r3, #2
  1016d0:	2203      	mov	r2, #3
  1016d2:	21bb      	mov	r1, #187
  1016d4:	50c2      	str	r2, [r0, r3]
  1016d6:	0089      	lsl	r1, r1, #2
  1016d8:	23ba      	mov	r3, #186
  1016da:	1842      	add	r2, r0, r1
  1016dc:	009b      	lsl	r3, r3, #2
  1016de:	50c2      	str	r2, [r0, r3]
  1016e0:	2104      	mov	r1, #4
  1016e2:	6840      	ldr	r0, [r0, #4]
  1016e4:	2200      	mov	r2, #0
  1016e6:	1c23      	mov	r3, r4		(add r3, r4, #0)
  1016e8:	ffc0f7ff 	bl	10166c <std>
  1016ec:	68a0      	ldr	r0, [r4, #8]
  1016ee:	2109      	mov	r1, #9
  1016f0:	2201      	mov	r2, #1
  1016f2:	1c23      	mov	r3, r4		(add r3, r4, #0)
  1016f4:	ffbaf7ff 	bl	10166c <std>
  1016f8:	68e0      	ldr	r0, [r4, #12]
  1016fa:	210a      	mov	r1, #10
  1016fc:	2202      	mov	r2, #2
  1016fe:	1c23      	mov	r3, r4		(add r3, r4, #0)
  101700:	ffb4f7ff 	bl	10166c <std>
  101704:	bc10      	pop	{r4}
  101706:	bc01      	pop	{r0}
  101708:	4700      	bx	r0
  10170a:	0000      	lsl	r0, r0, #0
  10170c:	1749      	asr	r1, r1, #29
  10170e:	0010      	lsl	r0, r2, #0

00101710 <__fp_lock>:
  101710:	2000      	mov	r0, #0
  101712:	4770      	bx	lr

00101714 <__fp_unlock>:
  101714:	2000      	mov	r0, #0
  101716:	4770      	bx	lr

00101718 <__fp_unlock_all>:
  101718:	b500      	push	{lr}
  10171a:	4b03      	ldr	r3, [pc, #12]	(101728 <.text+0x1728>)
  10171c:	4903      	ldr	r1, [pc, #12]	(10172c <.text+0x172c>)
  10171e:	6818      	ldr	r0, [r3, #0]
  101720:	fb42f000 	bl	101da8 <_fwalk>
  101724:	bc01      	pop	{r0}
  101726:	4700      	bx	r0
  101728:	0060      	lsl	r0, r4, #1
  10172a:	0020      	lsl	r0, r4, #0
  10172c:	1715      	asr	r5, r2, #28
  10172e:	0010      	lsl	r0, r2, #0

00101730 <__fp_lock_all>:
  101730:	b500      	push	{lr}
  101732:	4b03      	ldr	r3, [pc, #12]	(101740 <.text+0x1740>)
  101734:	4903      	ldr	r1, [pc, #12]	(101744 <.text+0x1744>)
  101736:	6818      	ldr	r0, [r3, #0]
  101738:	fb36f000 	bl	101da8 <_fwalk>
  10173c:	bc01      	pop	{r0}
  10173e:	4700      	bx	r0
  101740:	0060      	lsl	r0, r4, #1
  101742:	0020      	lsl	r0, r4, #0
  101744:	1711      	asr	r1, r2, #28
  101746:	0010      	lsl	r0, r2, #0

00101748 <_cleanup_r>:
  101748:	b500      	push	{lr}
  10174a:	4902      	ldr	r1, [pc, #8]	(101754 <.text+0x1754>)
  10174c:	fb2cf000 	bl	101da8 <_fwalk>
  101750:	bc01      	pop	{r0}
  101752:	4700      	bx	r0
  101754:	2c7d      	cmp	r4, #125
  101756:	0010      	lsl	r0, r2, #0

00101758 <_cleanup>:
  101758:	b500      	push	{lr}
  10175a:	4b03      	ldr	r3, [pc, #12]	(101768 <.text+0x1768>)
  10175c:	6818      	ldr	r0, [r3, #0]
  10175e:	fff3f7ff 	bl	101748 <_cleanup_r>
  101762:	bc01      	pop	{r0}
  101764:	4700      	bx	r0
  101766:	0000      	lsl	r0, r0, #0
  101768:	3058      	add	r0, #88
  10176a:	0010      	lsl	r0, r2, #0

0010176c <__sfmoreglue>:
  10176c:	b570      	push	{r4, r5, r6, lr}
  10176e:	235c      	mov	r3, #92
  101770:	1c0e      	mov	r6, r1		(add r6, r1, #0)
  101772:	435e      	mul	r6, r3
  101774:	1c0d      	mov	r5, r1		(add r5, r1, #0)
  101776:	1c31      	mov	r1, r6		(add r1, r6, #0)
  101778:	310c      	add	r1, #12
  10177a:	fc03f000 	bl	101f84 <_malloc_r>
  10177e:	2800      	cmp	r0, #0
  101780:	d00d      	beq	10179e <__sfmoreglue+0x32>
  101782:	1c04      	mov	r4, r0		(add r4, r0, #0)
  101784:	2300      	mov	r3, #0
  101786:	300c      	add	r0, #12
  101788:	6023      	str	r3, [r4, #0]
  10178a:	6065      	str	r5, [r4, #4]
  10178c:	60a0      	str	r0, [r4, #8]
  10178e:	2100      	mov	r1, #0
  101790:	1c32      	mov	r2, r6		(add r2, r6, #0)
  101792:	ff37f000 	bl	102604 <memset>
  101796:	1c20      	mov	r0, r4		(add r0, r4, #0)
  101798:	bc70      	pop	{r4, r5, r6}
  10179a:	bc02      	pop	{r1}
  10179c:	4708      	bx	r1
  10179e:	2400      	mov	r4, #0
  1017a0:	e7f9      	b	101796 <__sfmoreglue+0x2a>
	...

001017a4 <__sfp>:
  1017a4:	b570      	push	{r4, r5, r6, lr}
  1017a6:	4b21      	ldr	r3, [pc, #132]	(10182c <.text+0x182c>)
  1017a8:	681c      	ldr	r4, [r3, #0]
  1017aa:	6ba3      	ldr	r3, [r4, #56]
  1017ac:	1c05      	mov	r5, r0		(add r5, r0, #0)
  1017ae:	2b00      	cmp	r3, #0
  1017b0:	d02c      	beq	10180c <__sfp+0x68>
  1017b2:	22b8      	mov	r2, #184
  1017b4:	0092      	lsl	r2, r2, #2
  1017b6:	18a4      	add	r4, r4, r2
  1017b8:	6863      	ldr	r3, [r4, #4]
  1017ba:	68a0      	ldr	r0, [r4, #8]
  1017bc:	1e59      	sub	r1, r3, #1
  1017be:	d40d      	bmi	1017dc <__sfp+0x38>
  1017c0:	260c      	mov	r6, #12
  1017c2:	5f83      	ldrsh	r3, [r0, r6]
  1017c4:	2b00      	cmp	r3, #0
  1017c6:	d00e      	beq	1017e6 <__sfp+0x42>
  1017c8:	2200      	mov	r2, #0
  1017ca:	e005      	b	1017d8 <__sfp+0x34>
  1017cc:	305c      	add	r0, #92
  1017ce:	260c      	mov	r6, #12
  1017d0:	5f83      	ldrsh	r3, [r0, r6]
  1017d2:	3201      	add	r2, #1
  1017d4:	2b00      	cmp	r3, #0
  1017d6:	d006      	beq	1017e6 <__sfp+0x42>
  1017d8:	428a      	cmp	r2, r1
  1017da:	d1f7      	bne	1017cc <__sfp+0x28>
  1017dc:	6820      	ldr	r0, [r4, #0]
  1017de:	2800      	cmp	r0, #0
  1017e0:	d018      	beq	101814 <__sfp+0x70>
  1017e2:	1c04      	mov	r4, r0		(add r4, r0, #0)
  1017e4:	e7e8      	b	1017b8 <__sfp+0x14>
  1017e6:	2301      	mov	r3, #1
  1017e8:	425b      	neg	r3, r3
  1017ea:	81c3      	strh	r3, [r0, #14]
  1017ec:	2301      	mov	r3, #1
  1017ee:	8183      	strh	r3, [r0, #12]
  1017f0:	2300      	mov	r3, #0
  1017f2:	6003      	str	r3, [r0, #0]
  1017f4:	6083      	str	r3, [r0, #8]
  1017f6:	6043      	str	r3, [r0, #4]
  1017f8:	6103      	str	r3, [r0, #16]
  1017fa:	6143      	str	r3, [r0, #20]
  1017fc:	6183      	str	r3, [r0, #24]
  1017fe:	6303      	str	r3, [r0, #48]
  101800:	6343      	str	r3, [r0, #52]
  101802:	6443      	str	r3, [r0, #68]
  101804:	6483      	str	r3, [r0, #72]
  101806:	bc70      	pop	{r4, r5, r6}
  101808:	bc02      	pop	{r1}
  10180a:	4708      	bx	r1
  10180c:	1c20      	mov	r0, r4		(add r0, r4, #0)
  10180e:	ff51f7ff 	bl	1016b4 <__sinit>
  101812:	e7ce      	b	1017b2 <__sfp+0xe>
  101814:	1c28      	mov	r0, r5		(add r0, r5, #0)
  101816:	2104      	mov	r1, #4
  101818:	ffa8f7ff 	bl	10176c <__sfmoreglue>
  10181c:	6020      	str	r0, [r4, #0]
  10181e:	2800      	cmp	r0, #0
  101820:	d1df      	bne	1017e2 <__sfp+0x3e>
  101822:	230c      	mov	r3, #12
  101824:	2000      	mov	r0, #0
  101826:	602b      	str	r3, [r5, #0]
  101828:	e7ed      	b	101806 <__sfp+0x62>
  10182a:	0000      	lsl	r0, r0, #0
  10182c:	3058      	add	r0, #88
  10182e:	0010      	lsl	r0, r2, #0

00101830 <_malloc_trim_r>:
  101830:	b5f0      	push	{r4, r5, r6, r7, lr}
  101832:	1c0c      	mov	r4, r1		(add r4, r1, #0)
  101834:	1c06      	mov	r6, r0		(add r6, r0, #0)
  101836:	ff17f000 	bl	102668 <__malloc_lock>
  10183a:	4f21      	ldr	r7, [pc, #132]	(1018c0 <.text+0x18c0>)
  10183c:	68bb      	ldr	r3, [r7, #8]
  10183e:	685a      	ldr	r2, [r3, #4]
  101840:	2303      	mov	r3, #3
  101842:	1c15      	mov	r5, r2		(add r5, r2, #0)
  101844:	439d      	bic	r5, r3
  101846:	4b1f      	ldr	r3, [pc, #124]	(1018c4 <.text+0x18c4>)
  101848:	1b2c      	sub	r4, r5, r4
  10184a:	18e4      	add	r4, r4, r3
  10184c:	0b24      	lsr	r4, r4, #12
  10184e:	3c01      	sub	r4, #1
  101850:	0324      	lsl	r4, r4, #12
  101852:	3310      	add	r3, #16
  101854:	429c      	cmp	r4, r3
  101856:	dd07      	ble	101868 <_malloc_trim_r+0x38>
  101858:	1c30      	mov	r0, r6		(add r0, r6, #0)
  10185a:	2100      	mov	r1, #0
  10185c:	fdb8f7fe 	bl	1003d0 <_sbrk_r>
  101860:	68bb      	ldr	r3, [r7, #8]
  101862:	18eb      	add	r3, r5, r3
  101864:	4298      	cmp	r0, r3
  101866:	d006      	beq	101876 <_malloc_trim_r+0x46>
  101868:	1c30      	mov	r0, r6		(add r0, r6, #0)
  10186a:	fefff000 	bl	10266c <__malloc_unlock>
  10186e:	2000      	mov	r0, #0
  101870:	bcf0      	pop	{r4, r5, r6, r7}
  101872:	bc02      	pop	{r1}
  101874:	4708      	bx	r1
  101876:	4261      	neg	r1, r4
  101878:	1c30      	mov	r0, r6		(add r0, r6, #0)
  10187a:	fda9f7fe 	bl	1003d0 <_sbrk_r>
  10187e:	3001      	add	r0, #1
  101880:	d00d      	beq	10189e <_malloc_trim_r+0x6e>
  101882:	2201      	mov	r2, #1
  101884:	1b2b      	sub	r3, r5, r4
  101886:	4313      	orr	r3, r2
  101888:	68b9      	ldr	r1, [r7, #8]
  10188a:	4a0f      	ldr	r2, [pc, #60]	(1018c8 <.text+0x18c8>)
  10188c:	604b      	str	r3, [r1, #4]
  10188e:	6813      	ldr	r3, [r2, #0]
  101890:	1b1b      	sub	r3, r3, r4
  101892:	1c30      	mov	r0, r6		(add r0, r6, #0)
  101894:	6013      	str	r3, [r2, #0]
  101896:	fee9f000 	bl	10266c <__malloc_unlock>
  10189a:	2001      	mov	r0, #1
  10189c:	e7e8      	b	101870 <_malloc_trim_r+0x40>
  10189e:	2100      	mov	r1, #0
  1018a0:	1c30      	mov	r0, r6		(add r0, r6, #0)
  1018a2:	fd95f7fe 	bl	1003d0 <_sbrk_r>
  1018a6:	68bc      	ldr	r4, [r7, #8]
  1018a8:	1b01      	sub	r1, r0, r4
  1018aa:	290f      	cmp	r1, #15
  1018ac:	dddc      	ble	101868 <_malloc_trim_r+0x38>
  1018ae:	4b07      	ldr	r3, [pc, #28]	(1018cc <.text+0x18cc>)
  1018b0:	681b      	ldr	r3, [r3, #0]
  1018b2:	4a05      	ldr	r2, [pc, #20]	(1018c8 <.text+0x18c8>)
  1018b4:	1ac3      	sub	r3, r0, r3
  1018b6:	6013      	str	r3, [r2, #0]
  1018b8:	2301      	mov	r3, #1
  1018ba:	430b      	orr	r3, r1
  1018bc:	6063      	str	r3, [r4, #4]
  1018be:	e7d3      	b	101868 <_malloc_trim_r+0x38>
  1018c0:	0474      	lsl	r4, r6, #17
  1018c2:	0020      	lsl	r0, r4, #0
  1018c4:	0fef      	lsr	r7, r5, #31
  1018c6:	0000      	lsl	r0, r0, #0
  1018c8:	0978      	lsr	r0, r7, #5
  1018ca:	0020      	lsl	r0, r4, #0
  1018cc:	0880      	lsr	r0, r0, #2
  1018ce:	0020      	lsl	r0, r4, #0

001018d0 <_free_r>:
  1018d0:	b5f0      	push	{r4, r5, r6, r7, lr}
  1018d2:	4657      	mov	r7, sl
  1018d4:	4646      	mov	r6, r8
  1018d6:	b4c0      	push	{r6, r7}
  1018d8:	4680      	mov	r8, r0
  1018da:	1c0c      	mov	r4, r1		(add r4, r1, #0)
  1018dc:	2900      	cmp	r1, #0
  1018de:	d031      	beq	101944 <_free_r+0x74>
  1018e0:	1c25      	mov	r5, r4		(add r5, r4, #0)
  1018e2:	3d08      	sub	r5, #8
  1018e4:	fec0f000 	bl	102668 <__malloc_lock>
  1018e8:	686c      	ldr	r4, [r5, #4]
  1018ea:	2701      	mov	r7, #1
  1018ec:	1c21      	mov	r1, r4		(add r1, r4, #0)
  1018ee:	43b9      	bic	r1, r7
  1018f0:	1868      	add	r0, r5, r1
  1018f2:	6843      	ldr	r3, [r0, #4]
  1018f4:	2203      	mov	r2, #3
  1018f6:	1c1e      	mov	r6, r3		(add r6, r3, #0)
  1018f8:	4396      	bic	r6, r2
  1018fa:	4a62      	ldr	r2, [pc, #392]	(101a84 <.text+0x1a84>)
  1018fc:	6893      	ldr	r3, [r2, #8]
  1018fe:	4694      	mov	ip, r2
  101900:	4692      	mov	sl, r2
  101902:	4298      	cmp	r0, r3
  101904:	d066      	beq	1019d4 <_free_r+0x104>
  101906:	6046      	str	r6, [r0, #4]
  101908:	423c      	tst	r4, r7
  10190a:	d10b      	bne	101924 <_free_r+0x54>
  10190c:	682b      	ldr	r3, [r5, #0]
  10190e:	1aed      	sub	r5, r5, r3
  101910:	18c9      	add	r1, r1, r3
  101912:	68aa      	ldr	r2, [r5, #8]
  101914:	4663      	mov	r3, ip
  101916:	3308      	add	r3, #8
  101918:	429a      	cmp	r2, r3
  10191a:	d100      	bne	10191e <_free_r+0x4e>
  10191c:	e07b      	b	101a16 <_free_r+0x146>
  10191e:	68eb      	ldr	r3, [r5, #12]
  101920:	60d3      	str	r3, [r2, #12]
  101922:	609a      	str	r2, [r3, #8]
  101924:	2400      	mov	r4, #0
  101926:	1983      	add	r3, r0, r6
  101928:	685b      	ldr	r3, [r3, #4]
  10192a:	2701      	mov	r7, #1
  10192c:	423b      	tst	r3, r7
  10192e:	d00f      	beq	101950 <_free_r+0x80>
  101930:	2001      	mov	r0, #1
  101932:	1c0b      	mov	r3, r1		(add r3, r1, #0)
  101934:	4303      	orr	r3, r0
  101936:	606b      	str	r3, [r5, #4]
  101938:	5149      	str	r1, [r1, r5]
  10193a:	2c00      	cmp	r4, #0
  10193c:	d01a      	beq	101974 <_free_r+0xa4>
  10193e:	4640      	mov	r0, r8
  101940:	fe94f000 	bl	10266c <__malloc_unlock>
  101944:	bc0c      	pop	{r2, r3}
  101946:	4690      	mov	r8, r2
  101948:	469a      	mov	sl, r3
  10194a:	bcf0      	pop	{r4, r5, r6, r7}
  10194c:	bc01      	pop	{r0}
  10194e:	4700      	bx	r0
  101950:	1989      	add	r1, r1, r6
  101952:	2c00      	cmp	r4, #0
  101954:	d129      	bne	1019aa <_free_r+0xda>
  101956:	4653      	mov	r3, sl
  101958:	6882      	ldr	r2, [r0, #8]
  10195a:	3308      	add	r3, #8
  10195c:	429a      	cmp	r2, r3
  10195e:	d062      	beq	101a26 <_free_r+0x156>
  101960:	68c3      	ldr	r3, [r0, #12]
  101962:	2001      	mov	r0, #1
  101964:	60d3      	str	r3, [r2, #12]
  101966:	609a      	str	r2, [r3, #8]
  101968:	1c0b      	mov	r3, r1		(add r3, r1, #0)
  10196a:	4303      	orr	r3, r0
  10196c:	606b      	str	r3, [r5, #4]
  10196e:	5149      	str	r1, [r1, r5]
  101970:	2c00      	cmp	r4, #0
  101972:	d1e4      	bne	10193e <_free_r+0x6e>
  101974:	4b44      	ldr	r3, [pc, #272]	(101a88 <.text+0x1a88>)
  101976:	4299      	cmp	r1, r3
  101978:	d919      	bls	1019ae <_free_r+0xde>
  10197a:	0a4a      	lsr	r2, r1, #9
  10197c:	2a00      	cmp	r2, #0
  10197e:	d142      	bne	101a06 <_free_r+0x136>
  101980:	08cb      	lsr	r3, r1, #3
  101982:	00da      	lsl	r2, r3, #3
  101984:	4650      	mov	r0, sl
  101986:	1814      	add	r4, r2, r0
  101988:	68a0      	ldr	r0, [r4, #8]
  10198a:	4284      	cmp	r4, r0
  10198c:	d054      	beq	101a38 <_free_r+0x168>
  10198e:	6843      	ldr	r3, [r0, #4]
  101990:	2203      	mov	r2, #3
  101992:	4393      	bic	r3, r2
  101994:	4299      	cmp	r1, r3
  101996:	d202      	bcs	10199e <_free_r+0xce>
  101998:	6880      	ldr	r0, [r0, #8]
  10199a:	4284      	cmp	r4, r0
  10199c:	d1f7      	bne	10198e <_free_r+0xbe>
  10199e:	68c4      	ldr	r4, [r0, #12]
  1019a0:	60ec      	str	r4, [r5, #12]
  1019a2:	60a8      	str	r0, [r5, #8]
  1019a4:	60c5      	str	r5, [r0, #12]
  1019a6:	60a5      	str	r5, [r4, #8]
  1019a8:	e7c9      	b	10193e <_free_r+0x6e>
  1019aa:	6882      	ldr	r2, [r0, #8]
  1019ac:	e7d8      	b	101960 <_free_r+0x90>
  1019ae:	08c9      	lsr	r1, r1, #3
  1019b0:	1c0a      	mov	r2, r1		(add r2, r1, #0)
  1019b2:	2900      	cmp	r1, #0
  1019b4:	db35      	blt	101a22 <_free_r+0x152>
  1019b6:	1092      	asr	r2, r2, #2
  1019b8:	4090      	lsl	r0, r2
  1019ba:	1c02      	mov	r2, r0		(add r2, r0, #0)
  1019bc:	4660      	mov	r0, ip
  1019be:	6843      	ldr	r3, [r0, #4]
  1019c0:	4313      	orr	r3, r2
  1019c2:	6043      	str	r3, [r0, #4]
  1019c4:	00cb      	lsl	r3, r1, #3
  1019c6:	4453      	add	r3, sl
  1019c8:	689a      	ldr	r2, [r3, #8]
  1019ca:	60eb      	str	r3, [r5, #12]
  1019cc:	60aa      	str	r2, [r5, #8]
  1019ce:	60d5      	str	r5, [r2, #12]
  1019d0:	609d      	str	r5, [r3, #8]
  1019d2:	e7b4      	b	10193e <_free_r+0x6e>
  1019d4:	1989      	add	r1, r1, r6
  1019d6:	423c      	tst	r4, r7
  1019d8:	d106      	bne	1019e8 <_free_r+0x118>
  1019da:	682b      	ldr	r3, [r5, #0]
  1019dc:	1aed      	sub	r5, r5, r3
  1019de:	68ea      	ldr	r2, [r5, #12]
  1019e0:	18c9      	add	r1, r1, r3
  1019e2:	68ab      	ldr	r3, [r5, #8]
  1019e4:	60da      	str	r2, [r3, #12]
  1019e6:	6093      	str	r3, [r2, #8]
  1019e8:	1c0b      	mov	r3, r1		(add r3, r1, #0)
  1019ea:	433b      	orr	r3, r7
  1019ec:	606b      	str	r3, [r5, #4]
  1019ee:	4663      	mov	r3, ip
  1019f0:	609d      	str	r5, [r3, #8]
  1019f2:	4b26      	ldr	r3, [pc, #152]	(101a8c <.text+0x1a8c>)
  1019f4:	681b      	ldr	r3, [r3, #0]
  1019f6:	4299      	cmp	r1, r3
  1019f8:	d3a1      	bcc	10193e <_free_r+0x6e>
  1019fa:	4b25      	ldr	r3, [pc, #148]	(101a90 <.text+0x1a90>)
  1019fc:	4640      	mov	r0, r8
  1019fe:	6819      	ldr	r1, [r3, #0]
  101a00:	ff16f7ff 	bl	101830 <_malloc_trim_r>
  101a04:	e79b      	b	10193e <_free_r+0x6e>
  101a06:	2a04      	cmp	r2, #4
  101a08:	d907      	bls	101a1a <_free_r+0x14a>
  101a0a:	2a14      	cmp	r2, #20
  101a0c:	d81e      	bhi	101a4c <_free_r+0x17c>
  101a0e:	1c13      	mov	r3, r2		(add r3, r2, #0)
  101a10:	335b      	add	r3, #91
  101a12:	00da      	lsl	r2, r3, #3
  101a14:	e7b6      	b	101984 <_free_r+0xb4>
  101a16:	2401      	mov	r4, #1
  101a18:	e785      	b	101926 <_free_r+0x56>
  101a1a:	098b      	lsr	r3, r1, #6
  101a1c:	3338      	add	r3, #56
  101a1e:	00da      	lsl	r2, r3, #3
  101a20:	e7b0      	b	101984 <_free_r+0xb4>
  101a22:	1cca      	add	r2, r1, #3
  101a24:	e7c7      	b	1019b6 <_free_r+0xe6>
  101a26:	1c0b      	mov	r3, r1		(add r3, r1, #0)
  101a28:	433b      	orr	r3, r7
  101a2a:	60d5      	str	r5, [r2, #12]
  101a2c:	6095      	str	r5, [r2, #8]
  101a2e:	60ea      	str	r2, [r5, #12]
  101a30:	60aa      	str	r2, [r5, #8]
  101a32:	606b      	str	r3, [r5, #4]
  101a34:	5149      	str	r1, [r1, r5]
  101a36:	e782      	b	10193e <_free_r+0x6e>
  101a38:	2b00      	cmp	r3, #0
  101a3a:	db15      	blt	101a68 <_free_r+0x198>
  101a3c:	109b      	asr	r3, r3, #2
  101a3e:	4661      	mov	r1, ip
  101a40:	2201      	mov	r2, #1
  101a42:	409a      	lsl	r2, r3
  101a44:	684b      	ldr	r3, [r1, #4]
  101a46:	4313      	orr	r3, r2
  101a48:	604b      	str	r3, [r1, #4]
  101a4a:	e7a9      	b	1019a0 <_free_r+0xd0>
  101a4c:	2a54      	cmp	r2, #84
  101a4e:	d803      	bhi	101a58 <_free_r+0x188>
  101a50:	0b0b      	lsr	r3, r1, #12
  101a52:	336e      	add	r3, #110
  101a54:	00da      	lsl	r2, r3, #3
  101a56:	e795      	b	101984 <_free_r+0xb4>
  101a58:	23aa      	mov	r3, #170
  101a5a:	005b      	lsl	r3, r3, #1
  101a5c:	429a      	cmp	r2, r3
  101a5e:	d805      	bhi	101a6c <_free_r+0x19c>
  101a60:	0bcb      	lsr	r3, r1, #15
  101a62:	3377      	add	r3, #119
  101a64:	00da      	lsl	r2, r3, #3
  101a66:	e78d      	b	101984 <_free_r+0xb4>
  101a68:	3303      	add	r3, #3
  101a6a:	e7e7      	b	101a3c <_free_r+0x16c>
  101a6c:	4b09      	ldr	r3, [pc, #36]	(101a94 <.text+0x1a94>)
  101a6e:	429a      	cmp	r2, r3
  101a70:	d903      	bls	101a7a <_free_r+0x1aa>
  101a72:	22fc      	mov	r2, #252
  101a74:	237e      	mov	r3, #126
  101a76:	0092      	lsl	r2, r2, #2
  101a78:	e784      	b	101984 <_free_r+0xb4>
  101a7a:	0c8b      	lsr	r3, r1, #18
  101a7c:	337c      	add	r3, #124
  101a7e:	00da      	lsl	r2, r3, #3
  101a80:	e780      	b	101984 <_free_r+0xb4>
  101a82:	0000      	lsl	r0, r0, #0
  101a84:	0474      	lsl	r4, r6, #17
  101a86:	0020      	lsl	r0, r4, #0
  101a88:	01ff      	lsl	r7, r7, #7
  101a8a:	0000      	lsl	r0, r0, #0
  101a8c:	087c      	lsr	r4, r7, #1
  101a8e:	0020      	lsl	r0, r4, #0
  101a90:	096c      	lsr	r4, r5, #5
  101a92:	0020      	lsl	r0, r4, #0
  101a94:	0554      	lsl	r4, r2, #21
	...

00101a98 <__sfvwrite>:
  101a98:	b5f0      	push	{r4, r5, r6, r7, lr}
  101a9a:	465f      	mov	r7, fp
  101a9c:	4656      	mov	r6, sl
  101a9e:	464d      	mov	r5, r9
  101aa0:	4644      	mov	r4, r8
  101aa2:	b4f0      	push	{r4, r5, r6, r7}
  101aa4:	688b      	ldr	r3, [r1, #8]
  101aa6:	b082      	sub	sp, #8
  101aa8:	1c06      	mov	r6, r0		(add r6, r0, #0)
  101aaa:	4689      	mov	r9, r1
  101aac:	2b00      	cmp	r3, #0
  101aae:	d02d      	beq	101b0c <__sfvwrite+0x74>
  101ab0:	8981      	ldrh	r1, [r0, #12]
  101ab2:	070a      	lsl	r2, r1, #28
  101ab4:	d400      	bmi	101ab8 <__sfvwrite+0x20>
  101ab6:	e12e      	b	101d16 <__sfvwrite+0x27e>
  101ab8:	6903      	ldr	r3, [r0, #16]
  101aba:	2b00      	cmp	r3, #0
  101abc:	d100      	bne	101ac0 <__sfvwrite+0x28>
  101abe:	e12a      	b	101d16 <__sfvwrite+0x27e>
  101ac0:	464b      	mov	r3, r9
  101ac2:	681b      	ldr	r3, [r3, #0]
  101ac4:	469a      	mov	sl, r3
  101ac6:	078a      	lsl	r2, r1, #30
  101ac8:	d52a      	bpl	101b20 <__sfvwrite+0x88>
  101aca:	2400      	mov	r4, #0
  101acc:	2500      	mov	r5, #0
  101ace:	2c00      	cmp	r4, #0
  101ad0:	d016      	beq	101b00 <__sfvwrite+0x68>
  101ad2:	2380      	mov	r3, #128
  101ad4:	00db      	lsl	r3, r3, #3
  101ad6:	69f0      	ldr	r0, [r6, #28]
  101ad8:	1c22      	mov	r2, r4		(add r2, r4, #0)
  101ada:	429c      	cmp	r4, r3
  101adc:	d900      	bls	101ae0 <__sfvwrite+0x48>
  101ade:	1c1a      	mov	r2, r3		(add r2, r3, #0)
  101ae0:	6a73      	ldr	r3, [r6, #36]
  101ae2:	1c29      	mov	r1, r5		(add r1, r5, #0)
  101ae4:	f922f000 	bl	101d2c <.text+0x1d2c>
  101ae8:	2800      	cmp	r0, #0
  101aea:	dd5b      	ble	101ba4 <__sfvwrite+0x10c>
  101aec:	464a      	mov	r2, r9
  101aee:	6893      	ldr	r3, [r2, #8]
  101af0:	1a1b      	sub	r3, r3, r0
  101af2:	6093      	str	r3, [r2, #8]
  101af4:	2b00      	cmp	r3, #0
  101af6:	d009      	beq	101b0c <__sfvwrite+0x74>
  101af8:	1a24      	sub	r4, r4, r0
  101afa:	182d      	add	r5, r5, r0
  101afc:	2c00      	cmp	r4, #0
  101afe:	d1e8      	bne	101ad2 <__sfvwrite+0x3a>
  101b00:	4653      	mov	r3, sl
  101b02:	2208      	mov	r2, #8
  101b04:	681d      	ldr	r5, [r3, #0]
  101b06:	685c      	ldr	r4, [r3, #4]
  101b08:	4492      	add	sl, r2
  101b0a:	e7e0      	b	101ace <__sfvwrite+0x36>
  101b0c:	2000      	mov	r0, #0
  101b0e:	b002      	add	sp, #8
  101b10:	bc3c      	pop	{r2, r3, r4, r5}
  101b12:	4690      	mov	r8, r2
  101b14:	4699      	mov	r9, r3
  101b16:	46a2      	mov	sl, r4
  101b18:	46ab      	mov	fp, r5
  101b1a:	bcf0      	pop	{r4, r5, r6, r7}
  101b1c:	bc02      	pop	{r1}
  101b1e:	4708      	bx	r1
  101b20:	07cb      	lsl	r3, r1, #31
  101b22:	d546      	bpl	101bb2 <__sfvwrite+0x11a>
  101b24:	2700      	mov	r7, #0
  101b26:	9701      	str	r7, [sp, #4]
  101b28:	46bb      	mov	fp, r7
  101b2a:	46b8      	mov	r8, r7
  101b2c:	2f00      	cmp	r7, #0
  101b2e:	d02a      	beq	101b86 <__sfvwrite+0xee>
  101b30:	9b01      	ldr	r3, [sp, #4]
  101b32:	2b00      	cmp	r3, #0
  101b34:	d100      	bne	101b38 <__sfvwrite+0xa0>
  101b36:	e09d      	b	101c74 <__sfvwrite+0x1dc>
  101b38:	1c3d      	mov	r5, r7		(add r5, r7, #0)
  101b3a:	4547      	cmp	r7, r8
  101b3c:	d900      	bls	101b40 <__sfvwrite+0xa8>
  101b3e:	4645      	mov	r5, r8
  101b40:	6830      	ldr	r0, [r6, #0]
  101b42:	6933      	ldr	r3, [r6, #16]
  101b44:	68b1      	ldr	r1, [r6, #8]
  101b46:	6972      	ldr	r2, [r6, #20]
  101b48:	4298      	cmp	r0, r3
  101b4a:	d903      	bls	101b54 <__sfvwrite+0xbc>
  101b4c:	188c      	add	r4, r1, r2
  101b4e:	42a5      	cmp	r5, r4
  101b50:	dd00      	ble	101b54 <__sfvwrite+0xbc>
  101b52:	e0ab      	b	101cac <__sfvwrite+0x214>
  101b54:	4295      	cmp	r5, r2
  101b56:	db75      	blt	101c44 <__sfvwrite+0x1ac>
  101b58:	69f0      	ldr	r0, [r6, #28]
  101b5a:	6a73      	ldr	r3, [r6, #36]
  101b5c:	4659      	mov	r1, fp
  101b5e:	f8e5f000 	bl	101d2c <.text+0x1d2c>
  101b62:	1c04      	mov	r4, r0		(add r4, r0, #0)
  101b64:	2800      	cmp	r0, #0
  101b66:	dd1d      	ble	101ba4 <__sfvwrite+0x10c>
  101b68:	4642      	mov	r2, r8
  101b6a:	1b12      	sub	r2, r2, r4
  101b6c:	4690      	mov	r8, r2
  101b6e:	2a00      	cmp	r2, #0
  101b70:	d078      	beq	101c64 <__sfvwrite+0x1cc>
  101b72:	464a      	mov	r2, r9
  101b74:	6893      	ldr	r3, [r2, #8]
  101b76:	1b1b      	sub	r3, r3, r4
  101b78:	6093      	str	r3, [r2, #8]
  101b7a:	2b00      	cmp	r3, #0
  101b7c:	d0c6      	beq	101b0c <__sfvwrite+0x74>
  101b7e:	1b3f      	sub	r7, r7, r4
  101b80:	44a3      	add	fp, r4
  101b82:	2f00      	cmp	r7, #0
  101b84:	d1d4      	bne	101b30 <__sfvwrite+0x98>
  101b86:	4653      	mov	r3, sl
  101b88:	681b      	ldr	r3, [r3, #0]
  101b8a:	4652      	mov	r2, sl
  101b8c:	469b      	mov	fp, r3
  101b8e:	6857      	ldr	r7, [r2, #4]
  101b90:	2308      	mov	r3, #8
  101b92:	2200      	mov	r2, #0
  101b94:	449a      	add	sl, r3
  101b96:	9201      	str	r2, [sp, #4]
  101b98:	e7c8      	b	101b2c <__sfvwrite+0x94>
  101b9a:	9a00      	ldr	r2, [sp, #0]
  101b9c:	6931      	ldr	r1, [r6, #16]
  101b9e:	6810      	ldr	r0, [r2, #0]
  101ba0:	fe96f7ff 	bl	1018d0 <_free_r>
  101ba4:	89b3      	ldrh	r3, [r6, #12]
  101ba6:	2240      	mov	r2, #64
  101ba8:	4313      	orr	r3, r2
  101baa:	81b3      	strh	r3, [r6, #12]
  101bac:	2001      	mov	r0, #1
  101bae:	4240      	neg	r0, r0
  101bb0:	e7ad      	b	101b0e <__sfvwrite+0x76>
  101bb2:	4b5d      	ldr	r3, [pc, #372]	(101d28 <.text+0x1d28>)
  101bb4:	2700      	mov	r7, #0
  101bb6:	9300      	str	r3, [sp, #0]
  101bb8:	46bb      	mov	fp, r7
  101bba:	2f00      	cmp	r7, #0
  101bbc:	d025      	beq	101c0a <__sfvwrite+0x172>
  101bbe:	68b4      	ldr	r4, [r6, #8]
  101bc0:	058b      	lsl	r3, r1, #22
  101bc2:	d52a      	bpl	101c1a <__sfvwrite+0x182>
  101bc4:	1c22      	mov	r2, r4		(add r2, r4, #0)
  101bc6:	42a7      	cmp	r7, r4
  101bc8:	d902      	bls	101bd0 <__sfvwrite+0x138>
  101bca:	060b      	lsl	r3, r1, #24
  101bcc:	d500      	bpl	101bd0 <__sfvwrite+0x138>
  101bce:	e089      	b	101ce4 <__sfvwrite+0x24c>
  101bd0:	4297      	cmp	r7, r2
  101bd2:	d201      	bcs	101bd8 <__sfvwrite+0x140>
  101bd4:	1c3a      	mov	r2, r7		(add r2, r7, #0)
  101bd6:	1c3c      	mov	r4, r7		(add r4, r7, #0)
  101bd8:	6830      	ldr	r0, [r6, #0]
  101bda:	4659      	mov	r1, fp
  101bdc:	fcccf000 	bl	102578 <memmove>
  101be0:	68b3      	ldr	r3, [r6, #8]
  101be2:	1b1b      	sub	r3, r3, r4
  101be4:	60b3      	str	r3, [r6, #8]
  101be6:	6833      	ldr	r3, [r6, #0]
  101be8:	191b      	add	r3, r3, r4
  101bea:	6033      	str	r3, [r6, #0]
  101bec:	1c3d      	mov	r5, r7		(add r5, r7, #0)
  101bee:	46b8      	mov	r8, r7
  101bf0:	1c3c      	mov	r4, r7		(add r4, r7, #0)
  101bf2:	464a      	mov	r2, r9
  101bf4:	6893      	ldr	r3, [r2, #8]
  101bf6:	1b1b      	sub	r3, r3, r4
  101bf8:	6093      	str	r3, [r2, #8]
  101bfa:	2b00      	cmp	r3, #0
  101bfc:	d100      	bne	101c00 <__sfvwrite+0x168>
  101bfe:	e785      	b	101b0c <__sfvwrite+0x74>
  101c00:	1b7f      	sub	r7, r7, r5
  101c02:	44c3      	add	fp, r8
  101c04:	89b1      	ldrh	r1, [r6, #12]
  101c06:	2f00      	cmp	r7, #0
  101c08:	d1d9      	bne	101bbe <__sfvwrite+0x126>
  101c0a:	4652      	mov	r2, sl
  101c0c:	6812      	ldr	r2, [r2, #0]
  101c0e:	4653      	mov	r3, sl
  101c10:	4693      	mov	fp, r2
  101c12:	685f      	ldr	r7, [r3, #4]
  101c14:	2208      	mov	r2, #8
  101c16:	4492      	add	sl, r2
  101c18:	e7cf      	b	101bba <__sfvwrite+0x122>
  101c1a:	6830      	ldr	r0, [r6, #0]
  101c1c:	6933      	ldr	r3, [r6, #16]
  101c1e:	4298      	cmp	r0, r3
  101c20:	d902      	bls	101c28 <__sfvwrite+0x190>
  101c22:	1c25      	mov	r5, r4		(add r5, r4, #0)
  101c24:	42af      	cmp	r7, r5
  101c26:	d84f      	bhi	101cc8 <__sfvwrite+0x230>
  101c28:	6972      	ldr	r2, [r6, #20]
  101c2a:	4297      	cmp	r7, r2
  101c2c:	d330      	bcc	101c90 <__sfvwrite+0x1f8>
  101c2e:	69f0      	ldr	r0, [r6, #28]
  101c30:	6a73      	ldr	r3, [r6, #36]
  101c32:	4659      	mov	r1, fp
  101c34:	f87af000 	bl	101d2c <.text+0x1d2c>
  101c38:	1c04      	mov	r4, r0		(add r4, r0, #0)
  101c3a:	2800      	cmp	r0, #0
  101c3c:	ddb2      	ble	101ba4 <__sfvwrite+0x10c>
  101c3e:	1c05      	mov	r5, r0		(add r5, r0, #0)
  101c40:	4680      	mov	r8, r0
  101c42:	e7d6      	b	101bf2 <__sfvwrite+0x15a>
  101c44:	1c2a      	mov	r2, r5		(add r2, r5, #0)
  101c46:	4659      	mov	r1, fp
  101c48:	fc96f000 	bl	102578 <memmove>
  101c4c:	68b3      	ldr	r3, [r6, #8]
  101c4e:	1b5b      	sub	r3, r3, r5
  101c50:	60b3      	str	r3, [r6, #8]
  101c52:	6833      	ldr	r3, [r6, #0]
  101c54:	4642      	mov	r2, r8
  101c56:	1c2c      	mov	r4, r5		(add r4, r5, #0)
  101c58:	195b      	add	r3, r3, r5
  101c5a:	1b12      	sub	r2, r2, r4
  101c5c:	6033      	str	r3, [r6, #0]
  101c5e:	4690      	mov	r8, r2
  101c60:	2a00      	cmp	r2, #0
  101c62:	d186      	bne	101b72 <__sfvwrite+0xda>
  101c64:	1c30      	mov	r0, r6		(add r0, r6, #0)
  101c66:	fcb9f7ff 	bl	1015dc <fflush>
  101c6a:	2800      	cmp	r0, #0
  101c6c:	d19a      	bne	101ba4 <__sfvwrite+0x10c>
  101c6e:	2300      	mov	r3, #0
  101c70:	9301      	str	r3, [sp, #4]
  101c72:	e77e      	b	101b72 <__sfvwrite+0xda>
  101c74:	4658      	mov	r0, fp
  101c76:	210a      	mov	r1, #10
  101c78:	1c3a      	mov	r2, r7		(add r2, r7, #0)
  101c7a:	fc1ff000 	bl	1024bc <memchr>
  101c7e:	2800      	cmp	r0, #0
  101c80:	d044      	beq	101d0c <__sfvwrite+0x274>
  101c82:	465a      	mov	r2, fp
  101c84:	1a83      	sub	r3, r0, r2
  101c86:	3301      	add	r3, #1
  101c88:	4698      	mov	r8, r3
  101c8a:	2301      	mov	r3, #1
  101c8c:	9301      	str	r3, [sp, #4]
  101c8e:	e753      	b	101b38 <__sfvwrite+0xa0>
  101c90:	4659      	mov	r1, fp
  101c92:	1c3a      	mov	r2, r7		(add r2, r7, #0)
  101c94:	fc70f000 	bl	102578 <memmove>
  101c98:	68b3      	ldr	r3, [r6, #8]
  101c9a:	1bdb      	sub	r3, r3, r7
  101c9c:	60b3      	str	r3, [r6, #8]
  101c9e:	6833      	ldr	r3, [r6, #0]
  101ca0:	1c3c      	mov	r4, r7		(add r4, r7, #0)
  101ca2:	19db      	add	r3, r3, r7
  101ca4:	1c3d      	mov	r5, r7		(add r5, r7, #0)
  101ca6:	46b8      	mov	r8, r7
  101ca8:	6033      	str	r3, [r6, #0]
  101caa:	e7a2      	b	101bf2 <__sfvwrite+0x15a>
  101cac:	4659      	mov	r1, fp
  101cae:	1c22      	mov	r2, r4		(add r2, r4, #0)
  101cb0:	fc62f000 	bl	102578 <memmove>
  101cb4:	6833      	ldr	r3, [r6, #0]
  101cb6:	191b      	add	r3, r3, r4
  101cb8:	6033      	str	r3, [r6, #0]
  101cba:	1c30      	mov	r0, r6		(add r0, r6, #0)
  101cbc:	fc8ef7ff 	bl	1015dc <fflush>
  101cc0:	2800      	cmp	r0, #0
  101cc2:	d100      	bne	101cc6 <__sfvwrite+0x22e>
  101cc4:	e750      	b	101b68 <__sfvwrite+0xd0>
  101cc6:	e76d      	b	101ba4 <__sfvwrite+0x10c>
  101cc8:	4659      	mov	r1, fp
  101cca:	1c22      	mov	r2, r4		(add r2, r4, #0)
  101ccc:	fc54f000 	bl	102578 <memmove>
  101cd0:	6833      	ldr	r3, [r6, #0]
  101cd2:	191b      	add	r3, r3, r4
  101cd4:	6033      	str	r3, [r6, #0]
  101cd6:	1c30      	mov	r0, r6		(add r0, r6, #0)
  101cd8:	46a0      	mov	r8, r4
  101cda:	fc7ff7ff 	bl	1015dc <fflush>
  101cde:	2800      	cmp	r0, #0
  101ce0:	d087      	beq	101bf2 <__sfvwrite+0x15a>
  101ce2:	e75f      	b	101ba4 <__sfvwrite+0x10c>
  101ce4:	6931      	ldr	r1, [r6, #16]
  101ce6:	6833      	ldr	r3, [r6, #0]
  101ce8:	9a00      	ldr	r2, [sp, #0]
  101cea:	1a5c      	sub	r4, r3, r1
  101cec:	193d      	add	r5, r7, r4
  101cee:	6810      	ldr	r0, [r2, #0]
  101cf0:	1c2a      	mov	r2, r5		(add r2, r5, #0)
  101cf2:	fcbdf000 	bl	102670 <_realloc_r>
  101cf6:	2800      	cmp	r0, #0
  101cf8:	d100      	bne	101cfc <__sfvwrite+0x264>
  101cfa:	e74e      	b	101b9a <__sfvwrite+0x102>
  101cfc:	1903      	add	r3, r0, r4
  101cfe:	1c3a      	mov	r2, r7		(add r2, r7, #0)
  101d00:	1c3c      	mov	r4, r7		(add r4, r7, #0)
  101d02:	6130      	str	r0, [r6, #16]
  101d04:	6033      	str	r3, [r6, #0]
  101d06:	6175      	str	r5, [r6, #20]
  101d08:	60b7      	str	r7, [r6, #8]
  101d0a:	e761      	b	101bd0 <__sfvwrite+0x138>
  101d0c:	1c7a      	add	r2, r7, #1
  101d0e:	2301      	mov	r3, #1
  101d10:	4690      	mov	r8, r2
  101d12:	9301      	str	r3, [sp, #4]
  101d14:	e710      	b	101b38 <__sfvwrite+0xa0>
  101d16:	1c30      	mov	r0, r6		(add r0, r6, #0)
  101d18:	fc10f7ff 	bl	10153c <__swsetup>
  101d1c:	2800      	cmp	r0, #0
  101d1e:	d000      	beq	101d22 <__sfvwrite+0x28a>
  101d20:	e744      	b	101bac <__sfvwrite+0x114>
  101d22:	89b1      	ldrh	r1, [r6, #12]
  101d24:	e6cc      	b	101ac0 <__sfvwrite+0x28>
  101d26:	0000      	lsl	r0, r0, #0
  101d28:	0060      	lsl	r0, r4, #1
  101d2a:	0020      	lsl	r0, r4, #0
  101d2c:	4718      	bx	r3
  101d2e:	46c0      	nop			(mov r8, r8)

00101d30 <_fwalk_reent>:
  101d30:	b5f0      	push	{r4, r5, r6, r7, lr}
  101d32:	4657      	mov	r7, sl
  101d34:	464e      	mov	r6, r9
  101d36:	4645      	mov	r5, r8
  101d38:	b4e0      	push	{r5, r6, r7}
  101d3a:	27b8      	mov	r7, #184
  101d3c:	4680      	mov	r8, r0
  101d3e:	00bf      	lsl	r7, r7, #2
  101d40:	4447      	add	r7, r8
  101d42:	468a      	mov	sl, r1
  101d44:	fcaef7ff 	bl	1016a4 <__sfp_lock_acquire>
  101d48:	2f00      	cmp	r7, #0
  101d4a:	d02a      	beq	101da2 <_fwalk_reent+0x72>
  101d4c:	2300      	mov	r3, #0
  101d4e:	4699      	mov	r9, r3
  101d50:	687b      	ldr	r3, [r7, #4]
  101d52:	68ba      	ldr	r2, [r7, #8]
  101d54:	1e5e      	sub	r6, r3, #1
  101d56:	d417      	bmi	101d88 <_fwalk_reent+0x58>
  101d58:	1c14      	mov	r4, r2		(add r4, r2, #0)
  101d5a:	340c      	add	r4, #12
  101d5c:	2500      	mov	r5, #0
  101d5e:	e000      	b	101d62 <_fwalk_reent+0x32>
  101d60:	3501      	add	r5, #1
  101d62:	2200      	mov	r2, #0
  101d64:	5ea3      	ldrsh	r3, [r4, r2]
  101d66:	1c21      	mov	r1, r4		(add r1, r4, #0)
  101d68:	390c      	sub	r1, #12
  101d6a:	2b00      	cmp	r3, #0
  101d6c:	d009      	beq	101d82 <_fwalk_reent+0x52>
  101d6e:	2202      	mov	r2, #2
  101d70:	5ea3      	ldrsh	r3, [r4, r2]
  101d72:	3301      	add	r3, #1
  101d74:	d005      	beq	101d82 <_fwalk_reent+0x52>
  101d76:	4640      	mov	r0, r8
  101d78:	f850f000 	bl	101e1c <_fwalk+0x74>
  101d7c:	464b      	mov	r3, r9
  101d7e:	4303      	orr	r3, r0
  101d80:	4699      	mov	r9, r3
  101d82:	345c      	add	r4, #92
  101d84:	42ae      	cmp	r6, r5
  101d86:	d1eb      	bne	101d60 <_fwalk_reent+0x30>
  101d88:	683f      	ldr	r7, [r7, #0]
  101d8a:	2f00      	cmp	r7, #0
  101d8c:	d1e0      	bne	101d50 <_fwalk_reent+0x20>
  101d8e:	fc8bf7ff 	bl	1016a8 <__sfp_lock_release>
  101d92:	4648      	mov	r0, r9
  101d94:	bc1c      	pop	{r2, r3, r4}
  101d96:	4690      	mov	r8, r2
  101d98:	4699      	mov	r9, r3
  101d9a:	46a2      	mov	sl, r4
  101d9c:	bcf0      	pop	{r4, r5, r6, r7}
  101d9e:	bc02      	pop	{r1}
  101da0:	4708      	bx	r1
  101da2:	2200      	mov	r2, #0
  101da4:	4691      	mov	r9, r2
  101da6:	e7f2      	b	101d8e <_fwalk_reent+0x5e>

00101da8 <_fwalk>:
  101da8:	b5f0      	push	{r4, r5, r6, r7, lr}
  101daa:	4657      	mov	r7, sl
  101dac:	4646      	mov	r6, r8
  101dae:	b4c0      	push	{r6, r7}
  101db0:	1c04      	mov	r4, r0		(add r4, r0, #0)
  101db2:	4688      	mov	r8, r1
  101db4:	fc76f7ff 	bl	1016a4 <__sfp_lock_acquire>
  101db8:	22b8      	mov	r2, #184
  101dba:	0092      	lsl	r2, r2, #2
  101dbc:	18a7      	add	r7, r4, r2
  101dbe:	2f00      	cmp	r7, #0
  101dc0:	d028      	beq	101e14 <_fwalk+0x6c>
  101dc2:	2200      	mov	r2, #0
  101dc4:	4692      	mov	sl, r2
  101dc6:	687b      	ldr	r3, [r7, #4]
  101dc8:	68ba      	ldr	r2, [r7, #8]
  101dca:	1e5e      	sub	r6, r3, #1
  101dcc:	d416      	bmi	101dfc <_fwalk+0x54>
  101dce:	1c14      	mov	r4, r2		(add r4, r2, #0)
  101dd0:	340c      	add	r4, #12
  101dd2:	2500      	mov	r5, #0
  101dd4:	e000      	b	101dd8 <_fwalk+0x30>
  101dd6:	3501      	add	r5, #1
  101dd8:	2200      	mov	r2, #0
  101dda:	5ea3      	ldrsh	r3, [r4, r2]
  101ddc:	1c20      	mov	r0, r4		(add r0, r4, #0)
  101dde:	380c      	sub	r0, #12
  101de0:	2b00      	cmp	r3, #0
  101de2:	d008      	beq	101df6 <_fwalk+0x4e>
  101de4:	2202      	mov	r2, #2
  101de6:	5ea3      	ldrsh	r3, [r4, r2]
  101de8:	3301      	add	r3, #1
  101dea:	d004      	beq	101df6 <_fwalk+0x4e>
  101dec:	f815f000 	bl	101e1a <_fwalk+0x72>
  101df0:	4653      	mov	r3, sl
  101df2:	4303      	orr	r3, r0
  101df4:	469a      	mov	sl, r3
  101df6:	345c      	add	r4, #92
  101df8:	42ae      	cmp	r6, r5
  101dfa:	d1ec      	bne	101dd6 <_fwalk+0x2e>
  101dfc:	683f      	ldr	r7, [r7, #0]
  101dfe:	2f00      	cmp	r7, #0
  101e00:	d1e1      	bne	101dc6 <_fwalk+0x1e>
  101e02:	fc51f7ff 	bl	1016a8 <__sfp_lock_release>
  101e06:	4650      	mov	r0, sl
  101e08:	bc0c      	pop	{r2, r3}
  101e0a:	4690      	mov	r8, r2
  101e0c:	469a      	mov	sl, r3
  101e0e:	bcf0      	pop	{r4, r5, r6, r7}
  101e10:	bc02      	pop	{r1}
  101e12:	4708      	bx	r1
  101e14:	2300      	mov	r3, #0
  101e16:	469a      	mov	sl, r3
  101e18:	e7f3      	b	101e02 <_fwalk+0x5a>
  101e1a:	4740      	bx	r8
  101e1c:	4750      	bx	sl
  101e1e:	46c0      	nop			(mov r8, r8)

00101e20 <__locale_charset>:
  101e20:	4b01      	ldr	r3, [pc, #4]	(101e28 <.text+0x1e28>)
  101e22:	6818      	ldr	r0, [r3, #0]
  101e24:	4770      	bx	lr
  101e26:	0000      	lsl	r0, r0, #0
  101e28:	30a0      	add	r0, #160
  101e2a:	0010      	lsl	r0, r2, #0

00101e2c <_localeconv_r>:
  101e2c:	4800      	ldr	r0, [pc, #0]	(101e30 <.text+0x1e30>)
  101e2e:	4770      	bx	lr
  101e30:	3070      	add	r0, #112
  101e32:	0010      	lsl	r0, r2, #0

00101e34 <localeconv>:
  101e34:	b500      	push	{lr}
  101e36:	4b03      	ldr	r3, [pc, #12]	(101e44 <.text+0x1e44>)
  101e38:	6818      	ldr	r0, [r3, #0]
  101e3a:	fff7f7ff 	bl	101e2c <_localeconv_r>
  101e3e:	bc02      	pop	{r1}
  101e40:	4708      	bx	r1
  101e42:	0000      	lsl	r0, r0, #0
  101e44:	0060      	lsl	r0, r4, #1
  101e46:	0020      	lsl	r0, r4, #0

00101e48 <_setlocale_r>:
  101e48:	b5f0      	push	{r4, r5, r6, r7, lr}
  101e4a:	1c06      	mov	r6, r0		(add r6, r0, #0)
  101e4c:	1c0f      	mov	r7, r1		(add r7, r1, #0)
  101e4e:	1c14      	mov	r4, r2		(add r4, r2, #0)
  101e50:	2a00      	cmp	r2, #0
  101e52:	d00c      	beq	101e6e <_setlocale_r+0x26>
  101e54:	4d0b      	ldr	r5, [pc, #44]	(101e84 <.text+0x1e84>)
  101e56:	1c10      	mov	r0, r2		(add r0, r2, #0)
  101e58:	1c29      	mov	r1, r5		(add r1, r5, #0)
  101e5a:	fe61f000 	bl	102b20 <strcmp>
  101e5e:	2800      	cmp	r0, #0
  101e60:	d107      	bne	101e72 <_setlocale_r+0x2a>
  101e62:	6337      	str	r7, [r6, #48]
  101e64:	6374      	str	r4, [r6, #52]
  101e66:	1c28      	mov	r0, r5		(add r0, r5, #0)
  101e68:	bcf0      	pop	{r4, r5, r6, r7}
  101e6a:	bc02      	pop	{r1}
  101e6c:	4708      	bx	r1
  101e6e:	4805      	ldr	r0, [pc, #20]	(101e84 <.text+0x1e84>)
  101e70:	e7fa      	b	101e68 <_setlocale_r+0x20>
  101e72:	4905      	ldr	r1, [pc, #20]	(101e88 <.text+0x1e88>)
  101e74:	1c20      	mov	r0, r4		(add r0, r4, #0)
  101e76:	fe53f000 	bl	102b20 <strcmp>
  101e7a:	2800      	cmp	r0, #0
  101e7c:	d0f1      	beq	101e62 <_setlocale_r+0x1a>
  101e7e:	2000      	mov	r0, #0
  101e80:	e7f2      	b	101e68 <_setlocale_r+0x20>
  101e82:	0000      	lsl	r0, r0, #0
  101e84:	305c      	add	r0, #92
  101e86:	0010      	lsl	r0, r2, #0
  101e88:	2e64      	cmp	r6, #100
  101e8a:	0010      	lsl	r0, r2, #0

00101e8c <setlocale>:
  101e8c:	b510      	push	{r4, lr}
  101e8e:	4b05      	ldr	r3, [pc, #20]	(101ea4 <.text+0x1ea4>)
  101e90:	1c04      	mov	r4, r0		(add r4, r0, #0)
  101e92:	1c0a      	mov	r2, r1		(add r2, r1, #0)
  101e94:	6818      	ldr	r0, [r3, #0]
  101e96:	1c21      	mov	r1, r4		(add r1, r4, #0)
  101e98:	ffd6f7ff 	bl	101e48 <_setlocale_r>
  101e9c:	bc10      	pop	{r4}
  101e9e:	bc02      	pop	{r1}
  101ea0:	4708      	bx	r1
  101ea2:	0000      	lsl	r0, r0, #0
  101ea4:	0060      	lsl	r0, r4, #1
  101ea6:	0020      	lsl	r0, r4, #0

00101ea8 <__smakebuf>:
  101ea8:	b5f0      	push	{r4, r5, r6, r7, lr}
  101eaa:	8982      	ldrh	r2, [r0, #12]
  101eac:	b08f      	sub	sp, #60
  101eae:	1c04      	mov	r4, r0		(add r4, r0, #0)
  101eb0:	0793      	lsl	r3, r2, #30
  101eb2:	d440      	bmi	101f36 <__smakebuf+0x8e>
  101eb4:	89c3      	ldrh	r3, [r0, #14]
  101eb6:	041b      	lsl	r3, r3, #16
  101eb8:	1419      	asr	r1, r3, #16
  101eba:	2900      	cmp	r1, #0
  101ebc:	db45      	blt	101f4a <__smakebuf+0xa2>
  101ebe:	4e2e      	ldr	r6, [pc, #184]	(101f78 <.text+0x1f78>)
  101ec0:	466a      	mov	r2, sp
  101ec2:	6830      	ldr	r0, [r6, #0]
  101ec4:	fa7cf7fe 	bl	1003c0 <_fstat_r>
  101ec8:	2800      	cmp	r0, #0
  101eca:	db52      	blt	101f72 <__smakebuf+0xca>
  101ecc:	23f0      	mov	r3, #240
  101ece:	9a01      	ldr	r2, [sp, #4]
  101ed0:	021b      	lsl	r3, r3, #8
  101ed2:	401a      	and	r2, r3
  101ed4:	2380      	mov	r3, #128
  101ed6:	019b      	lsl	r3, r3, #6
  101ed8:	2700      	mov	r7, #0
  101eda:	429a      	cmp	r2, r3
  101edc:	d03c      	beq	101f58 <__smakebuf+0xb0>
  101ede:	2380      	mov	r3, #128
  101ee0:	021b      	lsl	r3, r3, #8
  101ee2:	429a      	cmp	r2, r3
  101ee4:	d03a      	beq	101f5c <__smakebuf+0xb4>
  101ee6:	89a3      	ldrh	r3, [r4, #12]
  101ee8:	2280      	mov	r2, #128
  101eea:	0112      	lsl	r2, r2, #4
  101eec:	4313      	orr	r3, r2
  101eee:	81a3      	strh	r3, [r4, #12]
  101ef0:	2580      	mov	r5, #128
  101ef2:	00ed      	lsl	r5, r5, #3
  101ef4:	6830      	ldr	r0, [r6, #0]
  101ef6:	1c29      	mov	r1, r5		(add r1, r5, #0)
  101ef8:	f844f000 	bl	101f84 <_malloc_r>
  101efc:	2800      	cmp	r0, #0
  101efe:	d016      	beq	101f2e <__smakebuf+0x86>
  101f00:	6832      	ldr	r2, [r6, #0]
  101f02:	4b1e      	ldr	r3, [pc, #120]	(101f7c <.text+0x1f7c>)
  101f04:	63d3      	str	r3, [r2, #60]
  101f06:	89a3      	ldrh	r3, [r4, #12]
  101f08:	2280      	mov	r2, #128
  101f0a:	4313      	orr	r3, r2
  101f0c:	81a3      	strh	r3, [r4, #12]
  101f0e:	6020      	str	r0, [r4, #0]
  101f10:	6120      	str	r0, [r4, #16]
  101f12:	6165      	str	r5, [r4, #20]
  101f14:	2f00      	cmp	r7, #0
  101f16:	d014      	beq	101f42 <__smakebuf+0x9a>
  101f18:	230e      	mov	r3, #14
  101f1a:	5ee0      	ldrsh	r0, [r4, r3]
  101f1c:	fa56f7fe 	bl	1003cc <isatty>
  101f20:	2800      	cmp	r0, #0
  101f22:	d00e      	beq	101f42 <__smakebuf+0x9a>
  101f24:	89a3      	ldrh	r3, [r4, #12]
  101f26:	2201      	mov	r2, #1
  101f28:	4313      	orr	r3, r2
  101f2a:	81a3      	strh	r3, [r4, #12]
  101f2c:	e009      	b	101f42 <__smakebuf+0x9a>
  101f2e:	89a3      	ldrh	r3, [r4, #12]
  101f30:	2202      	mov	r2, #2
  101f32:	4313      	orr	r3, r2
  101f34:	81a3      	strh	r3, [r4, #12]
  101f36:	1c23      	mov	r3, r4		(add r3, r4, #0)
  101f38:	3343      	add	r3, #67
  101f3a:	6023      	str	r3, [r4, #0]
  101f3c:	6123      	str	r3, [r4, #16]
  101f3e:	2301      	mov	r3, #1
  101f40:	6163      	str	r3, [r4, #20]
  101f42:	b00f      	add	sp, #60
  101f44:	bcf0      	pop	{r4, r5, r6, r7}
  101f46:	bc01      	pop	{r0}
  101f48:	4700      	bx	r0
  101f4a:	4e0b      	ldr	r6, [pc, #44]	(101f78 <.text+0x1f78>)
  101f4c:	2380      	mov	r3, #128
  101f4e:	011b      	lsl	r3, r3, #4
  101f50:	4313      	orr	r3, r2
  101f52:	2700      	mov	r7, #0
  101f54:	81a3      	strh	r3, [r4, #12]
  101f56:	e7cb      	b	101ef0 <__smakebuf+0x48>
  101f58:	2701      	mov	r7, #1
  101f5a:	e7c0      	b	101ede <__smakebuf+0x36>
  101f5c:	4a08      	ldr	r2, [pc, #32]	(101f80 <.text+0x1f80>)
  101f5e:	6aa3      	ldr	r3, [r4, #40]
  101f60:	4293      	cmp	r3, r2
  101f62:	d1c0      	bne	101ee6 <__smakebuf+0x3e>
  101f64:	89a3      	ldrh	r3, [r4, #12]
  101f66:	2280      	mov	r2, #128
  101f68:	00d2      	lsl	r2, r2, #3
  101f6a:	4313      	orr	r3, r2
  101f6c:	81a3      	strh	r3, [r4, #12]
  101f6e:	64e2      	str	r2, [r4, #76]
  101f70:	e7be      	b	101ef0 <__smakebuf+0x48>
  101f72:	89a2      	ldrh	r2, [r4, #12]
  101f74:	e7ea      	b	101f4c <__smakebuf+0xa4>
  101f76:	0000      	lsl	r0, r0, #0
  101f78:	0060      	lsl	r0, r4, #1
  101f7a:	0020      	lsl	r0, r4, #0
  101f7c:	1749      	asr	r1, r1, #29
  101f7e:	0010      	lsl	r0, r2, #0
  101f80:	2a61      	cmp	r2, #97
  101f82:	0010      	lsl	r0, r2, #0

00101f84 <_malloc_r>:
  101f84:	b5f0      	push	{r4, r5, r6, r7, lr}
  101f86:	465f      	mov	r7, fp
  101f88:	4656      	mov	r6, sl
  101f8a:	464d      	mov	r5, r9
  101f8c:	4644      	mov	r4, r8
  101f8e:	b4f0      	push	{r4, r5, r6, r7}
  101f90:	1c0a      	mov	r2, r1		(add r2, r1, #0)
  101f92:	320b      	add	r2, #11
  101f94:	b082      	sub	sp, #8
  101f96:	1c07      	mov	r7, r0		(add r7, r0, #0)
  101f98:	2a16      	cmp	r2, #22
  101f9a:	d80e      	bhi	101fba <_malloc_r+0x36>
  101f9c:	2610      	mov	r6, #16
  101f9e:	42b1      	cmp	r1, r6
  101fa0:	d912      	bls	101fc8 <_malloc_r+0x44>
  101fa2:	230c      	mov	r3, #12
  101fa4:	603b      	str	r3, [r7, #0]
  101fa6:	2000      	mov	r0, #0
  101fa8:	b002      	add	sp, #8
  101faa:	bc3c      	pop	{r2, r3, r4, r5}
  101fac:	4690      	mov	r8, r2
  101fae:	4699      	mov	r9, r3
  101fb0:	46a2      	mov	sl, r4
  101fb2:	46ab      	mov	fp, r5
  101fb4:	bcf0      	pop	{r4, r5, r6, r7}
  101fb6:	bc02      	pop	{r1}
  101fb8:	4708      	bx	r1
  101fba:	2307      	mov	r3, #7
  101fbc:	1c16      	mov	r6, r2		(add r6, r2, #0)
  101fbe:	439e      	bic	r6, r3
  101fc0:	2e00      	cmp	r6, #0
  101fc2:	dbee      	blt	101fa2 <_malloc_r+0x1e>
  101fc4:	42b1      	cmp	r1, r6
  101fc6:	d8ec      	bhi	101fa2 <_malloc_r+0x1e>
  101fc8:	1c38      	mov	r0, r7		(add r0, r7, #0)
  101fca:	fb4df000 	bl	102668 <__malloc_lock>
  101fce:	4bbb      	ldr	r3, [pc, #748]	(1022bc <.text+0x22bc>)
  101fd0:	429e      	cmp	r6, r3
  101fd2:	d93a      	bls	10204a <_malloc_r+0xc6>
  101fd4:	0a72      	lsr	r2, r6, #9
  101fd6:	2a00      	cmp	r2, #0
  101fd8:	d153      	bne	102082 <_malloc_r+0xfe>
  101fda:	08f5      	lsr	r5, r6, #3
  101fdc:	00eb      	lsl	r3, r5, #3
  101fde:	4ab8      	ldr	r2, [pc, #736]	(1022c0 <.text+0x22c0>)
  101fe0:	1898      	add	r0, r3, r2
  101fe2:	68c4      	ldr	r4, [r0, #12]
  101fe4:	4694      	mov	ip, r2
  101fe6:	4690      	mov	r8, r2
  101fe8:	42a0      	cmp	r0, r4
  101fea:	d105      	bne	101ff8 <_malloc_r+0x74>
  101fec:	e00c      	b	102008 <_malloc_r+0x84>
  101fee:	2b00      	cmp	r3, #0
  101ff0:	da38      	bge	102064 <_malloc_r+0xe0>
  101ff2:	68e4      	ldr	r4, [r4, #12]
  101ff4:	42a0      	cmp	r0, r4
  101ff6:	d007      	beq	102008 <_malloc_r+0x84>
  101ff8:	6862      	ldr	r2, [r4, #4]
  101ffa:	2303      	mov	r3, #3
  101ffc:	1c11      	mov	r1, r2		(add r1, r2, #0)
  101ffe:	4399      	bic	r1, r3
  102000:	1b8b      	sub	r3, r1, r6
  102002:	2b0f      	cmp	r3, #15
  102004:	ddf3      	ble	101fee <_malloc_r+0x6a>
  102006:	3d01      	sub	r5, #1
  102008:	3501      	add	r5, #1
  10200a:	46aa      	mov	sl, r5
  10200c:	2308      	mov	r3, #8
  10200e:	4463      	add	r3, ip
  102010:	689c      	ldr	r4, [r3, #8]
  102012:	4699      	mov	r9, r3
  102014:	454c      	cmp	r4, r9
  102016:	d100      	bne	10201a <_malloc_r+0x96>
  102018:	e0d7      	b	1021ca <_malloc_r+0x246>
  10201a:	6862      	ldr	r2, [r4, #4]
  10201c:	2303      	mov	r3, #3
  10201e:	1c15      	mov	r5, r2		(add r5, r2, #0)
  102020:	439d      	bic	r5, r3
  102022:	1ba8      	sub	r0, r5, r6
  102024:	280f      	cmp	r0, #15
  102026:	dd00      	ble	10202a <_malloc_r+0xa6>
  102028:	e0a6      	b	102178 <_malloc_r+0x1f4>
  10202a:	4649      	mov	r1, r9
  10202c:	60c9      	str	r1, [r1, #12]
  10202e:	6089      	str	r1, [r1, #8]
  102030:	2800      	cmp	r0, #0
  102032:	db34      	blt	10209e <_malloc_r+0x11a>
  102034:	1963      	add	r3, r4, r5
  102036:	685a      	ldr	r2, [r3, #4]
  102038:	2101      	mov	r1, #1
  10203a:	430a      	orr	r2, r1
  10203c:	1c38      	mov	r0, r7		(add r0, r7, #0)
  10203e:	605a      	str	r2, [r3, #4]
  102040:	fb14f000 	bl	10266c <__malloc_unlock>
  102044:	1c20      	mov	r0, r4		(add r0, r4, #0)
  102046:	3008      	add	r0, #8
  102048:	e7ae      	b	101fa8 <_malloc_r+0x24>
  10204a:	499d      	ldr	r1, [pc, #628]	(1022c0 <.text+0x22c0>)
  10204c:	08f2      	lsr	r2, r6, #3
  10204e:	468c      	mov	ip, r1
  102050:	00d3      	lsl	r3, r2, #3
  102052:	4463      	add	r3, ip
  102054:	68dc      	ldr	r4, [r3, #12]
  102056:	4688      	mov	r8, r1
  102058:	42a3      	cmp	r3, r4
  10205a:	d100      	bne	10205e <_malloc_r+0xda>
  10205c:	e083      	b	102166 <_malloc_r+0x1e2>
  10205e:	6861      	ldr	r1, [r4, #4]
  102060:	2303      	mov	r3, #3
  102062:	4399      	bic	r1, r3
  102064:	68e2      	ldr	r2, [r4, #12]
  102066:	68a3      	ldr	r3, [r4, #8]
  102068:	1861      	add	r1, r4, r1
  10206a:	60da      	str	r2, [r3, #12]
  10206c:	6093      	str	r3, [r2, #8]
  10206e:	684b      	ldr	r3, [r1, #4]
  102070:	2201      	mov	r2, #1
  102072:	4313      	orr	r3, r2
  102074:	1c38      	mov	r0, r7		(add r0, r7, #0)
  102076:	604b      	str	r3, [r1, #4]
  102078:	faf8f000 	bl	10266c <__malloc_unlock>
  10207c:	1c20      	mov	r0, r4		(add r0, r4, #0)
  10207e:	3008      	add	r0, #8
  102080:	e792      	b	101fa8 <_malloc_r+0x24>
  102082:	2a04      	cmp	r2, #4
  102084:	d906      	bls	102094 <_malloc_r+0x110>
  102086:	2a14      	cmp	r2, #20
  102088:	d900      	bls	10208c <_malloc_r+0x108>
  10208a:	e0a2      	b	1021d2 <_malloc_r+0x24e>
  10208c:	1c15      	mov	r5, r2		(add r5, r2, #0)
  10208e:	355b      	add	r5, #91
  102090:	00eb      	lsl	r3, r5, #3
  102092:	e7a4      	b	101fde <_malloc_r+0x5a>
  102094:	09b3      	lsr	r3, r6, #6
  102096:	1c1d      	mov	r5, r3		(add r5, r3, #0)
  102098:	3538      	add	r5, #56
  10209a:	00eb      	lsl	r3, r5, #3
  10209c:	e79f      	b	101fde <_malloc_r+0x5a>
  10209e:	4b89      	ldr	r3, [pc, #548]	(1022c4 <.text+0x22c4>)
  1020a0:	429d      	cmp	r5, r3
  1020a2:	d900      	bls	1020a6 <_malloc_r+0x122>
  1020a4:	e0ca      	b	10223c <_malloc_r+0x2b8>
  1020a6:	08e9      	lsr	r1, r5, #3
  1020a8:	1c0a      	mov	r2, r1		(add r2, r1, #0)
  1020aa:	2900      	cmp	r1, #0
  1020ac:	da00      	bge	1020b0 <_malloc_r+0x12c>
  1020ae:	e19a      	b	1023e6 <.text+0x23e6>
  1020b0:	1092      	asr	r2, r2, #2
  1020b2:	2301      	mov	r3, #1
  1020b4:	4093      	lsl	r3, r2
  1020b6:	4a82      	ldr	r2, [pc, #520]	(1022c0 <.text+0x22c0>)
  1020b8:	6852      	ldr	r2, [r2, #4]
  1020ba:	1c15      	mov	r5, r2		(add r5, r2, #0)
  1020bc:	431d      	orr	r5, r3
  1020be:	4a80      	ldr	r2, [pc, #512]	(1022c0 <.text+0x22c0>)
  1020c0:	00cb      	lsl	r3, r1, #3
  1020c2:	4463      	add	r3, ip
  1020c4:	6055      	str	r5, [r2, #4]
  1020c6:	689a      	ldr	r2, [r3, #8]
  1020c8:	60e3      	str	r3, [r4, #12]
  1020ca:	60a2      	str	r2, [r4, #8]
  1020cc:	60d4      	str	r4, [r2, #12]
  1020ce:	609c      	str	r4, [r3, #8]
  1020d0:	46a8      	mov	r8, r5
  1020d2:	4652      	mov	r2, sl
  1020d4:	2a00      	cmp	r2, #0
  1020d6:	da00      	bge	1020da <_malloc_r+0x156>
  1020d8:	e0ed      	b	1022b6 <_malloc_r+0x332>
  1020da:	2301      	mov	r3, #1
  1020dc:	1092      	asr	r2, r2, #2
  1020de:	1c1d      	mov	r5, r3		(add r5, r3, #0)
  1020e0:	4095      	lsl	r5, r2
  1020e2:	4545      	cmp	r5, r8
  1020e4:	d855      	bhi	102192 <_malloc_r+0x20e>
  1020e6:	4642      	mov	r2, r8
  1020e8:	4215      	tst	r5, r2
  1020ea:	d10e      	bne	10210a <_malloc_r+0x186>
  1020ec:	2303      	mov	r3, #3
  1020ee:	4654      	mov	r4, sl
  1020f0:	439c      	bic	r4, r3
  1020f2:	1c23      	mov	r3, r4		(add r3, r4, #0)
  1020f4:	3304      	add	r3, #4
  1020f6:	006d      	lsl	r5, r5, #1
  1020f8:	469a      	mov	sl, r3
  1020fa:	422a      	tst	r2, r5
  1020fc:	d105      	bne	10210a <_malloc_r+0x186>
  1020fe:	2104      	mov	r1, #4
  102100:	006d      	lsl	r5, r5, #1
  102102:	4642      	mov	r2, r8
  102104:	448a      	add	sl, r1
  102106:	422a      	tst	r2, r5
  102108:	d0f9      	beq	1020fe <_malloc_r+0x17a>
  10210a:	4654      	mov	r4, sl
  10210c:	00e3      	lsl	r3, r4, #3
  10210e:	4463      	add	r3, ip
  102110:	9301      	str	r3, [sp, #4]
  102112:	46d3      	mov	fp, sl
  102114:	1c19      	mov	r1, r3		(add r1, r3, #0)
  102116:	2203      	mov	r2, #3
  102118:	68cc      	ldr	r4, [r1, #12]
  10211a:	42a1      	cmp	r1, r4
  10211c:	d107      	bne	10212e <_malloc_r+0x1aa>
  10211e:	e0aa      	b	102276 <_malloc_r+0x2f2>
  102120:	2800      	cmp	r0, #0
  102122:	db00      	blt	102126 <_malloc_r+0x1a2>
  102124:	e0af      	b	102286 <_malloc_r+0x302>
  102126:	68e4      	ldr	r4, [r4, #12]
  102128:	42a1      	cmp	r1, r4
  10212a:	d100      	bne	10212e <_malloc_r+0x1aa>
  10212c:	e0a3      	b	102276 <_malloc_r+0x2f2>
  10212e:	6863      	ldr	r3, [r4, #4]
  102130:	4393      	bic	r3, r2
  102132:	1b98      	sub	r0, r3, r6
  102134:	280f      	cmp	r0, #15
  102136:	ddf3      	ble	102120 <_malloc_r+0x19c>
  102138:	2301      	mov	r3, #1
  10213a:	4333      	orr	r3, r6
  10213c:	68e1      	ldr	r1, [r4, #12]
  10213e:	6063      	str	r3, [r4, #4]
  102140:	68a3      	ldr	r3, [r4, #8]
  102142:	19a2      	add	r2, r4, r6
  102144:	464d      	mov	r5, r9
  102146:	60d9      	str	r1, [r3, #12]
  102148:	608b      	str	r3, [r1, #8]
  10214a:	60ea      	str	r2, [r5, #12]
  10214c:	60aa      	str	r2, [r5, #8]
  10214e:	2301      	mov	r3, #1
  102150:	60d5      	str	r5, [r2, #12]
  102152:	6095      	str	r5, [r2, #8]
  102154:	4303      	orr	r3, r0
  102156:	5010      	str	r0, [r2, r0]
  102158:	6053      	str	r3, [r2, #4]
  10215a:	1c38      	mov	r0, r7		(add r0, r7, #0)
  10215c:	fa86f000 	bl	10266c <__malloc_unlock>
  102160:	1c20      	mov	r0, r4		(add r0, r4, #0)
  102162:	3008      	add	r0, #8
  102164:	e720      	b	101fa8 <_malloc_r+0x24>
  102166:	1c23      	mov	r3, r4		(add r3, r4, #0)
  102168:	3308      	add	r3, #8
  10216a:	68dc      	ldr	r4, [r3, #12]
  10216c:	42a3      	cmp	r3, r4
  10216e:	d000      	beq	102172 <_malloc_r+0x1ee>
  102170:	e775      	b	10205e <_malloc_r+0xda>
  102172:	3202      	add	r2, #2
  102174:	4692      	mov	sl, r2
  102176:	e749      	b	10200c <_malloc_r+0x88>
  102178:	2101      	mov	r1, #1
  10217a:	1c33      	mov	r3, r6		(add r3, r6, #0)
  10217c:	430b      	orr	r3, r1
  10217e:	6063      	str	r3, [r4, #4]
  102180:	1c03      	mov	r3, r0		(add r3, r0, #0)
  102182:	19a2      	add	r2, r4, r6
  102184:	464d      	mov	r5, r9
  102186:	430b      	orr	r3, r1
  102188:	60ea      	str	r2, [r5, #12]
  10218a:	60aa      	str	r2, [r5, #8]
  10218c:	60d5      	str	r5, [r2, #12]
  10218e:	6095      	str	r5, [r2, #8]
  102190:	e7e1      	b	102156 <_malloc_r+0x1d2>
  102192:	4a4b      	ldr	r2, [pc, #300]	(1022c0 <.text+0x22c0>)
  102194:	6894      	ldr	r4, [r2, #8]
  102196:	6862      	ldr	r2, [r4, #4]
  102198:	2303      	mov	r3, #3
  10219a:	439a      	bic	r2, r3
  10219c:	4691      	mov	r9, r2
  10219e:	9400      	str	r4, [sp, #0]
  1021a0:	45b1      	cmp	r9, r6
  1021a2:	d31d      	bcc	1021e0 <_malloc_r+0x25c>
  1021a4:	1b90      	sub	r0, r2, r6
  1021a6:	280f      	cmp	r0, #15
  1021a8:	dd1a      	ble	1021e0 <_malloc_r+0x25c>
  1021aa:	2101      	mov	r1, #1
  1021ac:	1c33      	mov	r3, r6		(add r3, r6, #0)
  1021ae:	430b      	orr	r3, r1
  1021b0:	6063      	str	r3, [r4, #4]
  1021b2:	4b43      	ldr	r3, [pc, #268]	(1022c0 <.text+0x22c0>)
  1021b4:	19a2      	add	r2, r4, r6
  1021b6:	609a      	str	r2, [r3, #8]
  1021b8:	1c03      	mov	r3, r0		(add r3, r0, #0)
  1021ba:	430b      	orr	r3, r1
  1021bc:	1c38      	mov	r0, r7		(add r0, r7, #0)
  1021be:	6053      	str	r3, [r2, #4]
  1021c0:	fa54f000 	bl	10266c <__malloc_unlock>
  1021c4:	1c20      	mov	r0, r4		(add r0, r4, #0)
  1021c6:	3008      	add	r0, #8
  1021c8:	e6ee      	b	101fa8 <_malloc_r+0x24>
  1021ca:	4c3d      	ldr	r4, [pc, #244]	(1022c0 <.text+0x22c0>)
  1021cc:	6864      	ldr	r4, [r4, #4]
  1021ce:	46a0      	mov	r8, r4
  1021d0:	e77f      	b	1020d2 <_malloc_r+0x14e>
  1021d2:	2a54      	cmp	r2, #84
  1021d4:	d866      	bhi	1022a4 <_malloc_r+0x320>
  1021d6:	0b33      	lsr	r3, r6, #12
  1021d8:	1c1d      	mov	r5, r3		(add r5, r3, #0)
  1021da:	356e      	add	r5, #110
  1021dc:	00eb      	lsl	r3, r5, #3
  1021de:	e6fe      	b	101fde <_malloc_r+0x5a>
  1021e0:	4b39      	ldr	r3, [pc, #228]	(1022c8 <.text+0x22c8>)
  1021e2:	681b      	ldr	r3, [r3, #0]
  1021e4:	3310      	add	r3, #16
  1021e6:	18f5      	add	r5, r6, r3
  1021e8:	4b38      	ldr	r3, [pc, #224]	(1022cc <.text+0x22cc>)
  1021ea:	469a      	mov	sl, r3
  1021ec:	681b      	ldr	r3, [r3, #0]
  1021ee:	3301      	add	r3, #1
  1021f0:	d004      	beq	1021fc <_malloc_r+0x278>
  1021f2:	4937      	ldr	r1, [pc, #220]	(1022d0 <.text+0x22d0>)
  1021f4:	4b37      	ldr	r3, [pc, #220]	(1022d4 <.text+0x22d4>)
  1021f6:	186a      	add	r2, r5, r1
  1021f8:	1c15      	mov	r5, r2		(add r5, r2, #0)
  1021fa:	401d      	and	r5, r3
  1021fc:	1c38      	mov	r0, r7		(add r0, r7, #0)
  1021fe:	1c29      	mov	r1, r5		(add r1, r5, #0)
  102200:	f8e6f7fe 	bl	1003d0 <_sbrk_r>
  102204:	1c42      	add	r2, r0, #1
  102206:	d100      	bne	10220a <_malloc_r+0x286>
  102208:	e0cb      	b	1023a2 <.text+0x23a2>
  10220a:	464b      	mov	r3, r9
  10220c:	18e2      	add	r2, r4, r3
  10220e:	4680      	mov	r8, r0
  102210:	4542      	cmp	r2, r8
  102212:	d961      	bls	1022d8 <.text+0x22d8>
  102214:	492a      	ldr	r1, [pc, #168]	(1022c0 <.text+0x22c0>)
  102216:	428c      	cmp	r4, r1
  102218:	d100      	bne	10221c <_malloc_r+0x298>
  10221a:	e121      	b	102460 <.text+0x2460>
  10221c:	4928      	ldr	r1, [pc, #160]	(1022c0 <.text+0x22c0>)
  10221e:	688c      	ldr	r4, [r1, #8]
  102220:	6862      	ldr	r2, [r4, #4]
  102222:	2303      	mov	r3, #3
  102224:	439a      	bic	r2, r3
  102226:	1c13      	mov	r3, r2		(add r3, r2, #0)
  102228:	429e      	cmp	r6, r3
  10222a:	d802      	bhi	102232 <_malloc_r+0x2ae>
  10222c:	1b90      	sub	r0, r2, r6
  10222e:	280f      	cmp	r0, #15
  102230:	dcbb      	bgt	1021aa <_malloc_r+0x226>
  102232:	1c38      	mov	r0, r7		(add r0, r7, #0)
  102234:	fa1af000 	bl	10266c <__malloc_unlock>
  102238:	2000      	mov	r0, #0
  10223a:	e6b5      	b	101fa8 <_malloc_r+0x24>
  10223c:	0a6a      	lsr	r2, r5, #9
  10223e:	2a00      	cmp	r2, #0
  102240:	d000      	beq	102244 <_malloc_r+0x2c0>
  102242:	e084      	b	10234e <.text+0x234e>
  102244:	08eb      	lsr	r3, r5, #3
  102246:	00da      	lsl	r2, r3, #3
  102248:	4661      	mov	r1, ip
  10224a:	1850      	add	r0, r2, r1
  10224c:	6881      	ldr	r1, [r0, #8]
  10224e:	4288      	cmp	r0, r1
  102250:	d100      	bne	102254 <_malloc_r+0x2d0>
  102252:	e0cf      	b	1023f4 <.text+0x23f4>
  102254:	684b      	ldr	r3, [r1, #4]
  102256:	2203      	mov	r2, #3
  102258:	4393      	bic	r3, r2
  10225a:	429d      	cmp	r5, r3
  10225c:	d202      	bcs	102264 <_malloc_r+0x2e0>
  10225e:	6889      	ldr	r1, [r1, #8]
  102260:	4288      	cmp	r0, r1
  102262:	d1f7      	bne	102254 <_malloc_r+0x2d0>
  102264:	68c8      	ldr	r0, [r1, #12]
  102266:	60a1      	str	r1, [r4, #8]
  102268:	60e0      	str	r0, [r4, #12]
  10226a:	60cc      	str	r4, [r1, #12]
  10226c:	4914      	ldr	r1, [pc, #80]	(1022c0 <.text+0x22c0>)
  10226e:	6849      	ldr	r1, [r1, #4]
  102270:	4688      	mov	r8, r1
  102272:	6084      	str	r4, [r0, #8]
  102274:	e72d      	b	1020d2 <_malloc_r+0x14e>
  102276:	2301      	mov	r3, #1
  102278:	449b      	add	fp, r3
  10227a:	465c      	mov	r4, fp
  10227c:	4214      	tst	r4, r2
  10227e:	d100      	bne	102282 <_malloc_r+0x2fe>
  102280:	e0cd      	b	10241e <.text+0x241e>
  102282:	3108      	add	r1, #8
  102284:	e748      	b	102118 <_malloc_r+0x194>
  102286:	18e2      	add	r2, r4, r3
  102288:	6853      	ldr	r3, [r2, #4]
  10228a:	2101      	mov	r1, #1
  10228c:	430b      	orr	r3, r1
  10228e:	6053      	str	r3, [r2, #4]
  102290:	68e2      	ldr	r2, [r4, #12]
  102292:	68a3      	ldr	r3, [r4, #8]
  102294:	1c38      	mov	r0, r7		(add r0, r7, #0)
  102296:	60da      	str	r2, [r3, #12]
  102298:	6093      	str	r3, [r2, #8]
  10229a:	f9e7f000 	bl	10266c <__malloc_unlock>
  10229e:	1c20      	mov	r0, r4		(add r0, r4, #0)
  1022a0:	3008      	add	r0, #8
  1022a2:	e681      	b	101fa8 <_malloc_r+0x24>
  1022a4:	23aa      	mov	r3, #170
  1022a6:	005b      	lsl	r3, r3, #1
  1022a8:	429a      	cmp	r2, r3
  1022aa:	d86e      	bhi	10238a <.text+0x238a>
  1022ac:	0bf3      	lsr	r3, r6, #15
  1022ae:	1c1d      	mov	r5, r3		(add r5, r3, #0)
  1022b0:	3577      	add	r5, #119
  1022b2:	00eb      	lsl	r3, r5, #3
  1022b4:	e693      	b	101fde <_malloc_r+0x5a>
  1022b6:	3203      	add	r2, #3
  1022b8:	e70f      	b	1020da <_malloc_r+0x156>
  1022ba:	0000      	lsl	r0, r0, #0
  1022bc:	01f7      	lsl	r7, r6, #7
  1022be:	0000      	lsl	r0, r0, #0
  1022c0:	0474      	lsl	r4, r6, #17
  1022c2:	0020      	lsl	r0, r4, #0
  1022c4:	01ff      	lsl	r7, r7, #7
  1022c6:	0000      	lsl	r0, r0, #0
  1022c8:	096c      	lsr	r4, r5, #5
  1022ca:	0020      	lsl	r0, r4, #0
  1022cc:	0880      	lsr	r0, r0, #2
  1022ce:	0020      	lsl	r0, r4, #0
  1022d0:	0fff      	lsr	r7, r7, #31
  1022d2:	0000      	lsl	r0, r0, #0
  1022d4:	fffff000 	bl	1032d6 <_etext+0x232>
  1022d8:	4b72      	ldr	r3, [pc, #456]	(1024a4 <.text+0x24a4>)
  1022da:	469b      	mov	fp, r3
  1022dc:	681b      	ldr	r3, [r3, #0]
  1022de:	465c      	mov	r4, fp
  1022e0:	18e9      	add	r1, r5, r3
  1022e2:	6021      	str	r1, [r4, #0]
  1022e4:	4542      	cmp	r2, r8
  1022e6:	d038      	beq	10235a <.text+0x235a>
  1022e8:	4654      	mov	r4, sl
  1022ea:	6823      	ldr	r3, [r4, #0]
  1022ec:	3301      	add	r3, #1
  1022ee:	d100      	bne	1022f2 <.text+0x22f2>
  1022f0:	e08a      	b	102408 <.text+0x2408>
  1022f2:	1a83      	sub	r3, r0, r2
  1022f4:	18cb      	add	r3, r1, r3
  1022f6:	4659      	mov	r1, fp
  1022f8:	600b      	str	r3, [r1, #0]
  1022fa:	2307      	mov	r3, #7
  1022fc:	1c02      	mov	r2, r0		(add r2, r0, #0)
  1022fe:	401a      	and	r2, r3
  102300:	d14a      	bne	102398 <.text+0x2398>
  102302:	2100      	mov	r1, #0
  102304:	4643      	mov	r3, r8
  102306:	195a      	add	r2, r3, r5
  102308:	4b67      	ldr	r3, [pc, #412]	(1024a8 <.text+0x24a8>)
  10230a:	401a      	and	r2, r3
  10230c:	2380      	mov	r3, #128
  10230e:	015b      	lsl	r3, r3, #5
  102310:	1a9b      	sub	r3, r3, r2
  102312:	18cc      	add	r4, r1, r3
  102314:	1c38      	mov	r0, r7		(add r0, r7, #0)
  102316:	1c21      	mov	r1, r4		(add r1, r4, #0)
  102318:	f85af7fe 	bl	1003d0 <_sbrk_r>
  10231c:	1c45      	add	r5, r0, #1
  10231e:	d075      	beq	10240c <.text+0x240c>
  102320:	4641      	mov	r1, r8
  102322:	1a43      	sub	r3, r0, r1
  102324:	18e3      	add	r3, r4, r3
  102326:	2201      	mov	r2, #1
  102328:	1c18      	mov	r0, r3		(add r0, r3, #0)
  10232a:	4310      	orr	r0, r2
  10232c:	465a      	mov	r2, fp
  10232e:	6813      	ldr	r3, [r2, #0]
  102330:	18e3      	add	r3, r4, r3
  102332:	6013      	str	r3, [r2, #0]
  102334:	9d00      	ldr	r5, [sp, #0]
  102336:	4b5d      	ldr	r3, [pc, #372]	(1024ac <.text+0x24ac>)
  102338:	4644      	mov	r4, r8
  10233a:	609c      	str	r4, [r3, #8]
  10233c:	6060      	str	r0, [r4, #4]
  10233e:	429d      	cmp	r5, r3
  102340:	d015      	beq	10236e <.text+0x236e>
  102342:	4649      	mov	r1, r9
  102344:	290f      	cmp	r1, #15
  102346:	d82f      	bhi	1023a8 <.text+0x23a8>
  102348:	2301      	mov	r3, #1
  10234a:	6063      	str	r3, [r4, #4]
  10234c:	e768      	b	102220 <_malloc_r+0x29c>
  10234e:	2a04      	cmp	r2, #4
  102350:	d843      	bhi	1023da <.text+0x23da>
  102352:	09ab      	lsr	r3, r5, #6
  102354:	3338      	add	r3, #56
  102356:	00da      	lsl	r2, r3, #3
  102358:	e776      	b	102248 <_malloc_r+0x2c4>
  10235a:	4b53      	ldr	r3, [pc, #332]	(1024a8 <.text+0x24a8>)
  10235c:	4218      	tst	r0, r3
  10235e:	d1c3      	bne	1022e8 <.text+0x22e8>
  102360:	4952      	ldr	r1, [pc, #328]	(1024ac <.text+0x24ac>)
  102362:	464a      	mov	r2, r9
  102364:	18ab      	add	r3, r5, r2
  102366:	688c      	ldr	r4, [r1, #8]
  102368:	2201      	mov	r2, #1
  10236a:	4313      	orr	r3, r2
  10236c:	6063      	str	r3, [r4, #4]
  10236e:	4950      	ldr	r1, [pc, #320]	(1024b0 <.text+0x24b0>)
  102370:	465b      	mov	r3, fp
  102372:	681a      	ldr	r2, [r3, #0]
  102374:	680b      	ldr	r3, [r1, #0]
  102376:	429a      	cmp	r2, r3
  102378:	d900      	bls	10237c <.text+0x237c>
  10237a:	600a      	str	r2, [r1, #0]
  10237c:	494d      	ldr	r1, [pc, #308]	(1024b4 <.text+0x24b4>)
  10237e:	680b      	ldr	r3, [r1, #0]
  102380:	429a      	cmp	r2, r3
  102382:	d800      	bhi	102386 <.text+0x2386>
  102384:	e74c      	b	102220 <_malloc_r+0x29c>
  102386:	600a      	str	r2, [r1, #0]
  102388:	e74a      	b	102220 <_malloc_r+0x29c>
  10238a:	4b4b      	ldr	r3, [pc, #300]	(1024b8 <.text+0x24b8>)
  10238c:	429a      	cmp	r2, r3
  10238e:	d92c      	bls	1023ea <.text+0x23ea>
  102390:	23fc      	mov	r3, #252
  102392:	257e      	mov	r5, #126
  102394:	009b      	lsl	r3, r3, #2
  102396:	e622      	b	101fde <_malloc_r+0x5a>
  102398:	2308      	mov	r3, #8
  10239a:	1a99      	sub	r1, r3, r2
  10239c:	1840      	add	r0, r0, r1
  10239e:	4680      	mov	r8, r0
  1023a0:	e7b0      	b	102304 <.text+0x2304>
  1023a2:	4d42      	ldr	r5, [pc, #264]	(1024ac <.text+0x24ac>)
  1023a4:	68ac      	ldr	r4, [r5, #8]
  1023a6:	e73b      	b	102220 <_malloc_r+0x29c>
  1023a8:	9a00      	ldr	r2, [sp, #0]
  1023aa:	4649      	mov	r1, r9
  1023ac:	2307      	mov	r3, #7
  1023ae:	390c      	sub	r1, #12
  1023b0:	4399      	bic	r1, r3
  1023b2:	6853      	ldr	r3, [r2, #4]
  1023b4:	2201      	mov	r2, #1
  1023b6:	4013      	and	r3, r2
  1023b8:	9d00      	ldr	r5, [sp, #0]
  1023ba:	430b      	orr	r3, r1
  1023bc:	606b      	str	r3, [r5, #4]
  1023be:	186a      	add	r2, r5, r1
  1023c0:	2305      	mov	r3, #5
  1023c2:	6053      	str	r3, [r2, #4]
  1023c4:	6093      	str	r3, [r2, #8]
  1023c6:	290f      	cmp	r1, #15
  1023c8:	d9d1      	bls	10236e <.text+0x236e>
  1023ca:	1c29      	mov	r1, r5		(add r1, r5, #0)
  1023cc:	3108      	add	r1, #8
  1023ce:	1c38      	mov	r0, r7		(add r0, r7, #0)
  1023d0:	fa7ef7ff 	bl	1018d0 <_free_r>
  1023d4:	4935      	ldr	r1, [pc, #212]	(1024ac <.text+0x24ac>)
  1023d6:	688c      	ldr	r4, [r1, #8]
  1023d8:	e7c9      	b	10236e <.text+0x236e>
  1023da:	2a14      	cmp	r2, #20
  1023dc:	d819      	bhi	102412 <.text+0x2412>
  1023de:	1c13      	mov	r3, r2		(add r3, r2, #0)
  1023e0:	335b      	add	r3, #91
  1023e2:	00da      	lsl	r2, r3, #3
  1023e4:	e730      	b	102248 <_malloc_r+0x2c4>
  1023e6:	1cca      	add	r2, r1, #3
  1023e8:	e662      	b	1020b0 <_malloc_r+0x12c>
  1023ea:	0cb3      	lsr	r3, r6, #18
  1023ec:	1c1d      	mov	r5, r3		(add r5, r3, #0)
  1023ee:	357c      	add	r5, #124
  1023f0:	00eb      	lsl	r3, r5, #3
  1023f2:	e5f4      	b	101fde <_malloc_r+0x5a>
  1023f4:	2b00      	cmp	r3, #0
  1023f6:	db47      	blt	102488 <.text+0x2488>
  1023f8:	109b      	asr	r3, r3, #2
  1023fa:	4645      	mov	r5, r8
  1023fc:	2201      	mov	r2, #1
  1023fe:	409a      	lsl	r2, r3
  102400:	686b      	ldr	r3, [r5, #4]
  102402:	4313      	orr	r3, r2
  102404:	606b      	str	r3, [r5, #4]
  102406:	e72e      	b	102266 <_malloc_r+0x2e2>
  102408:	6020      	str	r0, [r4, #0]
  10240a:	e776      	b	1022fa <.text+0x22fa>
  10240c:	2400      	mov	r4, #0
  10240e:	2001      	mov	r0, #1
  102410:	e78c      	b	10232c <.text+0x232c>
  102412:	2a54      	cmp	r2, #84
  102414:	d82a      	bhi	10246c <.text+0x246c>
  102416:	0b2b      	lsr	r3, r5, #12
  102418:	336e      	add	r3, #110
  10241a:	00da      	lsl	r2, r3, #3
  10241c:	e714      	b	102248 <_malloc_r+0x2c4>
  10241e:	9901      	ldr	r1, [sp, #4]
  102420:	4650      	mov	r0, sl
  102422:	2403      	mov	r4, #3
  102424:	e000      	b	102428 <.text+0x2428>
  102426:	3801      	sub	r0, #1
  102428:	4220      	tst	r0, r4
  10242a:	d027      	beq	10247c <.text+0x247c>
  10242c:	1c0b      	mov	r3, r1		(add r3, r1, #0)
  10242e:	680a      	ldr	r2, [r1, #0]
  102430:	3b08      	sub	r3, #8
  102432:	1c19      	mov	r1, r3		(add r1, r3, #0)
  102434:	429a      	cmp	r2, r3
  102436:	d0f6      	beq	102426 <.text+0x2426>
  102438:	006d      	lsl	r5, r5, #1
  10243a:	4545      	cmp	r5, r8
  10243c:	d900      	bls	102440 <.text+0x2440>
  10243e:	e6a8      	b	102192 <_malloc_r+0x20e>
  102440:	2d00      	cmp	r5, #0
  102442:	d100      	bne	102446 <.text+0x2446>
  102444:	e6a5      	b	102192 <_malloc_r+0x20e>
  102446:	4641      	mov	r1, r8
  102448:	420d      	tst	r5, r1
  10244a:	d001      	beq	102450 <.text+0x2450>
  10244c:	46da      	mov	sl, fp
  10244e:	e65c      	b	10210a <_malloc_r+0x186>
  102450:	2204      	mov	r2, #4
  102452:	006d      	lsl	r5, r5, #1
  102454:	4643      	mov	r3, r8
  102456:	4493      	add	fp, r2
  102458:	422b      	tst	r3, r5
  10245a:	d0f9      	beq	102450 <.text+0x2450>
  10245c:	46da      	mov	sl, fp
  10245e:	e654      	b	10210a <_malloc_r+0x186>
  102460:	4c10      	ldr	r4, [pc, #64]	(1024a4 <.text+0x24a4>)
  102462:	6823      	ldr	r3, [r4, #0]
  102464:	46a3      	mov	fp, r4
  102466:	18e9      	add	r1, r5, r3
  102468:	6021      	str	r1, [r4, #0]
  10246a:	e73d      	b	1022e8 <.text+0x22e8>
  10246c:	23aa      	mov	r3, #170
  10246e:	005b      	lsl	r3, r3, #1
  102470:	429a      	cmp	r2, r3
  102472:	d80b      	bhi	10248c <.text+0x248c>
  102474:	0beb      	lsr	r3, r5, #15
  102476:	3377      	add	r3, #119
  102478:	00da      	lsl	r2, r3, #3
  10247a:	e6e5      	b	102248 <_malloc_r+0x2c4>
  10247c:	4644      	mov	r4, r8
  10247e:	43ac      	bic	r4, r5
  102480:	490a      	ldr	r1, [pc, #40]	(1024ac <.text+0x24ac>)
  102482:	46a0      	mov	r8, r4
  102484:	604c      	str	r4, [r1, #4]
  102486:	e7d7      	b	102438 <.text+0x2438>
  102488:	3303      	add	r3, #3
  10248a:	e7b5      	b	1023f8 <.text+0x23f8>
  10248c:	4b0a      	ldr	r3, [pc, #40]	(1024b8 <.text+0x24b8>)
  10248e:	429a      	cmp	r2, r3
  102490:	d903      	bls	10249a <.text+0x249a>
  102492:	22fc      	mov	r2, #252
  102494:	237e      	mov	r3, #126
  102496:	0092      	lsl	r2, r2, #2
  102498:	e6d6      	b	102248 <_malloc_r+0x2c4>
  10249a:	0cab      	lsr	r3, r5, #18
  10249c:	337c      	add	r3, #124
  10249e:	00da      	lsl	r2, r3, #3
  1024a0:	e6d2      	b	102248 <_malloc_r+0x2c4>
  1024a2:	0000      	lsl	r0, r0, #0
  1024a4:	0978      	lsr	r0, r7, #5
  1024a6:	0020      	lsl	r0, r4, #0
  1024a8:	0fff      	lsr	r7, r7, #31
  1024aa:	0000      	lsl	r0, r0, #0
  1024ac:	0474      	lsl	r4, r6, #17
  1024ae:	0020      	lsl	r0, r4, #0
  1024b0:	0970      	lsr	r0, r6, #5
  1024b2:	0020      	lsl	r0, r4, #0
  1024b4:	0974      	lsr	r4, r6, #5
  1024b6:	0020      	lsl	r0, r4, #0
  1024b8:	0554      	lsl	r4, r2, #21
	...

001024bc <memchr>:
  1024bc:	b5f0      	push	{r4, r5, r6, r7, lr}
  1024be:	4657      	mov	r7, sl
  1024c0:	464e      	mov	r6, r9
  1024c2:	4645      	mov	r5, r8
  1024c4:	b4e0      	push	{r5, r6, r7}
  1024c6:	23ff      	mov	r3, #255
  1024c8:	1c04      	mov	r4, r0		(add r4, r0, #0)
  1024ca:	1c17      	mov	r7, r2		(add r7, r2, #0)
  1024cc:	4019      	and	r1, r3
  1024ce:	2a03      	cmp	r2, #3
  1024d0:	d902      	bls	1024d8 <memchr+0x1c>
  1024d2:	2303      	mov	r3, #3
  1024d4:	4218      	tst	r0, r3
  1024d6:	d015      	beq	102504 <memchr+0x48>
  1024d8:	1e7c      	sub	r4, r7, #1
  1024da:	d30b      	bcc	1024f4 <memchr+0x38>
  1024dc:	7803      	ldrb	r3, [r0, #0]
  1024de:	4299      	cmp	r1, r3
  1024e0:	d009      	beq	1024f6 <memchr+0x3a>
  1024e2:	2200      	mov	r2, #0
  1024e4:	e004      	b	1024f0 <memchr+0x34>
  1024e6:	3001      	add	r0, #1
  1024e8:	7803      	ldrb	r3, [r0, #0]
  1024ea:	3201      	add	r2, #1
  1024ec:	4299      	cmp	r1, r3
  1024ee:	d002      	beq	1024f6 <memchr+0x3a>
  1024f0:	4294      	cmp	r4, r2
  1024f2:	d1f8      	bne	1024e6 <memchr+0x2a>
  1024f4:	2000      	mov	r0, #0
  1024f6:	bc1c      	pop	{r2, r3, r4}
  1024f8:	4690      	mov	r8, r2
  1024fa:	4699      	mov	r9, r3
  1024fc:	46a2      	mov	sl, r4
  1024fe:	bcf0      	pop	{r4, r5, r6, r7}
  102500:	bc02      	pop	{r1}
  102502:	4708      	bx	r1
  102504:	2200      	mov	r2, #0
  102506:	4690      	mov	r8, r2
  102508:	4640      	mov	r0, r8
  10250a:	0203      	lsl	r3, r0, #8
  10250c:	185b      	add	r3, r3, r1
  10250e:	3201      	add	r2, #1
  102510:	4698      	mov	r8, r3
  102512:	2a04      	cmp	r2, #4
  102514:	d1f8      	bne	102508 <memchr+0x4c>
  102516:	4b16      	ldr	r3, [pc, #88]	(102570 <.text+0x2570>)
  102518:	1ce2      	add	r2, r4, #3
  10251a:	1c20      	mov	r0, r4		(add r0, r4, #0)
  10251c:	1ca5      	add	r5, r4, #2
  10251e:	4691      	mov	r9, r2
  102520:	3401      	add	r4, #1
  102522:	469a      	mov	sl, r3
  102524:	6802      	ldr	r2, [r0, #0]
  102526:	4646      	mov	r6, r8
  102528:	4b12      	ldr	r3, [pc, #72]	(102574 <.text+0x2574>)
  10252a:	4072      	eor	r2, r6
  10252c:	189b      	add	r3, r3, r2
  10252e:	4656      	mov	r6, sl
  102530:	4033      	and	r3, r6
  102532:	4393      	bic	r3, r2
  102534:	d010      	beq	102558 <memchr+0x9c>
  102536:	7803      	ldrb	r3, [r0, #0]
  102538:	4684      	mov	ip, r0
  10253a:	4299      	cmp	r1, r3
  10253c:	d015      	beq	10256a <memchr+0xae>
  10253e:	7823      	ldrb	r3, [r4, #0]
  102540:	46a4      	mov	ip, r4
  102542:	4299      	cmp	r1, r3
  102544:	d011      	beq	10256a <memchr+0xae>
  102546:	782b      	ldrb	r3, [r5, #0]
  102548:	46ac      	mov	ip, r5
  10254a:	4299      	cmp	r1, r3
  10254c:	d00d      	beq	10256a <memchr+0xae>
  10254e:	464a      	mov	r2, r9
  102550:	7813      	ldrb	r3, [r2, #0]
  102552:	46cc      	mov	ip, r9
  102554:	4299      	cmp	r1, r3
  102556:	d008      	beq	10256a <memchr+0xae>
  102558:	2304      	mov	r3, #4
  10255a:	3f04      	sub	r7, #4
  10255c:	3004      	add	r0, #4
  10255e:	4499      	add	r9, r3
  102560:	3504      	add	r5, #4
  102562:	3404      	add	r4, #4
  102564:	2f03      	cmp	r7, #3
  102566:	d8dd      	bhi	102524 <memchr+0x68>
  102568:	e7b6      	b	1024d8 <memchr+0x1c>
  10256a:	4660      	mov	r0, ip
  10256c:	e7c3      	b	1024f6 <memchr+0x3a>
  10256e:	0000      	lsl	r0, r0, #0
  102570:	8080      	strh	r0, [r0, #4]
  102572:	8080      	strh	r0, [r0, #4]
  102574:	feff      	second half of BL instruction 0xfeff
  102576:	fefe      	second half of BL instruction 0xfefe

00102578 <memmove>:
  102578:	b530      	push	{r4, r5, lr}
  10257a:	1c05      	mov	r5, r0		(add r5, r0, #0)
  10257c:	1c0c      	mov	r4, r1		(add r4, r1, #0)
  10257e:	1c10      	mov	r0, r2		(add r0, r2, #0)
  102580:	46ac      	mov	ip, r5
  102582:	428d      	cmp	r5, r1
  102584:	d912      	bls	1025ac <memmove+0x34>
  102586:	188b      	add	r3, r1, r2
  102588:	429d      	cmp	r5, r3
  10258a:	d20f      	bcs	1025ac <memmove+0x34>
  10258c:	1e54      	sub	r4, r2, #1
  10258e:	d309      	bcc	1025a4 <memmove+0x2c>
  102590:	1c19      	mov	r1, r3		(add r1, r3, #0)
  102592:	1b1b      	sub	r3, r3, r4
  102594:	18aa      	add	r2, r5, r2
  102596:	1e5c      	sub	r4, r3, #1
  102598:	3901      	sub	r1, #1
  10259a:	780b      	ldrb	r3, [r1, #0]
  10259c:	3a01      	sub	r2, #1
  10259e:	7013      	strb	r3, [r2, #0]
  1025a0:	42a1      	cmp	r1, r4
  1025a2:	d1f9      	bne	102598 <memmove+0x20>
  1025a4:	1c28      	mov	r0, r5		(add r0, r5, #0)
  1025a6:	bc30      	pop	{r4, r5}
  1025a8:	bc02      	pop	{r1}
  1025aa:	4708      	bx	r1
  1025ac:	280f      	cmp	r0, #15
  1025ae:	d80b      	bhi	1025c8 <memmove+0x50>
  1025b0:	1e43      	sub	r3, r0, #1
  1025b2:	d3f7      	bcc	1025a4 <memmove+0x2c>
  1025b4:	4662      	mov	r2, ip
  1025b6:	189b      	add	r3, r3, r2
  1025b8:	1c58      	add	r0, r3, #1
  1025ba:	780b      	ldrb	r3, [r1, #0]
  1025bc:	7013      	strb	r3, [r2, #0]
  1025be:	3201      	add	r2, #1
  1025c0:	3101      	add	r1, #1
  1025c2:	4282      	cmp	r2, r0
  1025c4:	d1f9      	bne	1025ba <memmove+0x42>
  1025c6:	e7ed      	b	1025a4 <memmove+0x2c>
  1025c8:	1c22      	mov	r2, r4		(add r2, r4, #0)
  1025ca:	432a      	orr	r2, r5
  1025cc:	2303      	mov	r3, #3
  1025ce:	421a      	tst	r2, r3
  1025d0:	d1ee      	bne	1025b0 <memmove+0x38>
  1025d2:	1c2a      	mov	r2, r5		(add r2, r5, #0)
  1025d4:	1c21      	mov	r1, r4		(add r1, r4, #0)
  1025d6:	680b      	ldr	r3, [r1, #0]
  1025d8:	6013      	str	r3, [r2, #0]
  1025da:	684b      	ldr	r3, [r1, #4]
  1025dc:	6053      	str	r3, [r2, #4]
  1025de:	688b      	ldr	r3, [r1, #8]
  1025e0:	6093      	str	r3, [r2, #8]
  1025e2:	68cb      	ldr	r3, [r1, #12]
  1025e4:	3810      	sub	r0, #16
  1025e6:	60d3      	str	r3, [r2, #12]
  1025e8:	3110      	add	r1, #16
  1025ea:	3210      	add	r2, #16
  1025ec:	280f      	cmp	r0, #15
  1025ee:	d8f2      	bhi	1025d6 <memmove+0x5e>
  1025f0:	2803      	cmp	r0, #3
  1025f2:	d904      	bls	1025fe <memmove+0x86>
  1025f4:	c908      	ldmia	r1!,{r3}
  1025f6:	3804      	sub	r0, #4
  1025f8:	c208      	stmia	r2!,{r3}
  1025fa:	2803      	cmp	r0, #3
  1025fc:	d8fa      	bhi	1025f4 <memmove+0x7c>
  1025fe:	4694      	mov	ip, r2
  102600:	e7d6      	b	1025b0 <memmove+0x38>
  102602:	46c0      	nop			(mov r8, r8)

00102604 <memset>:
  102604:	b530      	push	{r4, r5, lr}
  102606:	1c04      	mov	r4, r0		(add r4, r0, #0)
  102608:	23ff      	mov	r3, #255
  10260a:	1c0d      	mov	r5, r1		(add r5, r1, #0)
  10260c:	1c10      	mov	r0, r2		(add r0, r2, #0)
  10260e:	46a4      	mov	ip, r4
  102610:	401d      	and	r5, r3
  102612:	2a03      	cmp	r2, #3
  102614:	d902      	bls	10261c <memset+0x18>
  102616:	2303      	mov	r3, #3
  102618:	421c      	tst	r4, r3
  10261a:	d00d      	beq	102638 <memset+0x34>
  10261c:	1e43      	sub	r3, r0, #1
  10261e:	d307      	bcc	102630 <memset+0x2c>
  102620:	4662      	mov	r2, ip
  102622:	189b      	add	r3, r3, r2
  102624:	1c29      	mov	r1, r5		(add r1, r5, #0)
  102626:	3301      	add	r3, #1
  102628:	7011      	strb	r1, [r2, #0]
  10262a:	3201      	add	r2, #1
  10262c:	429a      	cmp	r2, r3
  10262e:	d1fb      	bne	102628 <memset+0x24>
  102630:	1c20      	mov	r0, r4		(add r0, r4, #0)
  102632:	bc30      	pop	{r4, r5}
  102634:	bc02      	pop	{r1}
  102636:	4708      	bx	r1
  102638:	022b      	lsl	r3, r5, #8
  10263a:	1c2a      	mov	r2, r5		(add r2, r5, #0)
  10263c:	431a      	orr	r2, r3
  10263e:	0413      	lsl	r3, r2, #16
  102640:	1c21      	mov	r1, r4		(add r1, r4, #0)
  102642:	431a      	orr	r2, r3
  102644:	280f      	cmp	r0, #15
  102646:	d909      	bls	10265c <memset+0x58>
  102648:	3810      	sub	r0, #16
  10264a:	600a      	str	r2, [r1, #0]
  10264c:	604a      	str	r2, [r1, #4]
  10264e:	608a      	str	r2, [r1, #8]
  102650:	60ca      	str	r2, [r1, #12]
  102652:	3110      	add	r1, #16
  102654:	280f      	cmp	r0, #15
  102656:	d8f7      	bhi	102648 <memset+0x44>
  102658:	2803      	cmp	r0, #3
  10265a:	d903      	bls	102664 <memset+0x60>
  10265c:	3804      	sub	r0, #4
  10265e:	c104      	stmia	r1!,{r2}
  102660:	2803      	cmp	r0, #3
  102662:	d8fb      	bhi	10265c <memset+0x58>
  102664:	468c      	mov	ip, r1
  102666:	e7d9      	b	10261c <memset+0x18>

00102668 <__malloc_lock>:
  102668:	4770      	bx	lr
	...

0010266c <__malloc_unlock>:
  10266c:	4770      	bx	lr
  10266e:	46c0      	nop			(mov r8, r8)

00102670 <_realloc_r>:
  102670:	b5f0      	push	{r4, r5, r6, r7, lr}
  102672:	465f      	mov	r7, fp
  102674:	4656      	mov	r6, sl
  102676:	464d      	mov	r5, r9
  102678:	4644      	mov	r4, r8
  10267a:	b4f0      	push	{r4, r5, r6, r7}
  10267c:	b085      	sub	sp, #20
  10267e:	4683      	mov	fp, r0
  102680:	1c0e      	mov	r6, r1		(add r6, r1, #0)
  102682:	1c15      	mov	r5, r2		(add r5, r2, #0)
  102684:	2900      	cmp	r1, #0
  102686:	d100      	bne	10268a <_realloc_r+0x1a>
  102688:	e118      	b	1028bc <_realloc_r+0x24c>
  10268a:	1c34      	mov	r4, r6		(add r4, r6, #0)
  10268c:	3c08      	sub	r4, #8
  10268e:	ffebf7ff 	bl	102668 <__malloc_lock>
  102692:	6860      	ldr	r0, [r4, #4]
  102694:	1c2a      	mov	r2, r5		(add r2, r5, #0)
  102696:	320b      	add	r2, #11
  102698:	4681      	mov	r9, r0
  10269a:	2a16      	cmp	r2, #22
  10269c:	d823      	bhi	1026e6 <_realloc_r+0x76>
  10269e:	2110      	mov	r1, #16
  1026a0:	9103      	str	r1, [sp, #12]
  1026a2:	2010      	mov	r0, #16
  1026a4:	9a03      	ldr	r2, [sp, #12]
  1026a6:	4295      	cmp	r5, r2
  1026a8:	d823      	bhi	1026f2 <_realloc_r+0x82>
  1026aa:	2103      	mov	r1, #3
  1026ac:	464a      	mov	r2, r9
  1026ae:	438a      	bic	r2, r1
  1026b0:	4690      	mov	r8, r2
  1026b2:	468c      	mov	ip, r1
  1026b4:	4580      	cmp	r8, r0
  1026b6:	db2a      	blt	10270e <_realloc_r+0x9e>
  1026b8:	1c25      	mov	r5, r4		(add r5, r4, #0)
  1026ba:	46a2      	mov	sl, r4
  1026bc:	3508      	add	r5, #8
  1026be:	1c17      	mov	r7, r2		(add r7, r2, #0)
  1026c0:	9903      	ldr	r1, [sp, #12]
  1026c2:	1a78      	sub	r0, r7, r1
  1026c4:	280f      	cmp	r0, #15
  1026c6:	d900      	bls	1026ca <_realloc_r+0x5a>
  1026c8:	e0fd      	b	1028c6 <_realloc_r+0x256>
  1026ca:	6863      	ldr	r3, [r4, #4]
  1026cc:	2101      	mov	r1, #1
  1026ce:	400b      	and	r3, r1
  1026d0:	433b      	orr	r3, r7
  1026d2:	6063      	str	r3, [r4, #4]
  1026d4:	4650      	mov	r0, sl
  1026d6:	183a      	add	r2, r7, r0
  1026d8:	6853      	ldr	r3, [r2, #4]
  1026da:	430b      	orr	r3, r1
  1026dc:	6053      	str	r3, [r2, #4]
  1026de:	4658      	mov	r0, fp
  1026e0:	ffc4f7ff 	bl	10266c <__malloc_unlock>
  1026e4:	e009      	b	1026fa <_realloc_r+0x8a>
  1026e6:	2307      	mov	r3, #7
  1026e8:	1c10      	mov	r0, r2		(add r0, r2, #0)
  1026ea:	4398      	bic	r0, r3
  1026ec:	9003      	str	r0, [sp, #12]
  1026ee:	2800      	cmp	r0, #0
  1026f0:	dad8      	bge	1026a4 <_realloc_r+0x34>
  1026f2:	230c      	mov	r3, #12
  1026f4:	465e      	mov	r6, fp
  1026f6:	6033      	str	r3, [r6, #0]
  1026f8:	2500      	mov	r5, #0
  1026fa:	1c28      	mov	r0, r5		(add r0, r5, #0)
  1026fc:	b005      	add	sp, #20
  1026fe:	bc3c      	pop	{r2, r3, r4, r5}
  102700:	4690      	mov	r8, r2
  102702:	4699      	mov	r9, r3
  102704:	46a2      	mov	sl, r4
  102706:	46ab      	mov	fp, r5
  102708:	bcf0      	pop	{r4, r5, r6, r7}
  10270a:	bc02      	pop	{r1}
  10270c:	4708      	bx	r1
  10270e:	4bcd      	ldr	r3, [pc, #820]	(102a44 <.text+0x2a44>)
  102710:	1c21      	mov	r1, r4		(add r1, r4, #0)
  102712:	689a      	ldr	r2, [r3, #8]
  102714:	4441      	add	r1, r8
  102716:	46a2      	mov	sl, r4
  102718:	9300      	str	r3, [sp, #0]
  10271a:	9201      	str	r2, [sp, #4]
  10271c:	4291      	cmp	r1, r2
  10271e:	d100      	bne	102722 <_realloc_r+0xb2>
  102720:	e0f2      	b	102908 <_realloc_r+0x298>
  102722:	684f      	ldr	r7, [r1, #4]
  102724:	2301      	mov	r3, #1
  102726:	1c3a      	mov	r2, r7		(add r2, r7, #0)
  102728:	439a      	bic	r2, r3
  10272a:	1852      	add	r2, r2, r1
  10272c:	6852      	ldr	r2, [r2, #4]
  10272e:	421a      	tst	r2, r3
  102730:	d000      	beq	102734 <_realloc_r+0xc4>
  102732:	e0db      	b	1028ec <_realloc_r+0x27c>
  102734:	4662      	mov	r2, ip
  102736:	4397      	bic	r7, r2
  102738:	46bc      	mov	ip, r7
  10273a:	4647      	mov	r7, r8
  10273c:	4467      	add	r7, ip
  10273e:	42b8      	cmp	r0, r7
  102740:	dc00      	bgt	102744 <_realloc_r+0xd4>
  102742:	e0d6      	b	1028f2 <_realloc_r+0x282>
  102744:	464a      	mov	r2, r9
  102746:	07d2      	lsl	r2, r2, #31
  102748:	d47d      	bmi	102846 <_realloc_r+0x1d6>
  10274a:	6823      	ldr	r3, [r4, #0]
  10274c:	1ae3      	sub	r3, r4, r3
  10274e:	685a      	ldr	r2, [r3, #4]
  102750:	4699      	mov	r9, r3
  102752:	2303      	mov	r3, #3
  102754:	439a      	bic	r2, r3
  102756:	2900      	cmp	r1, #0
  102758:	d040      	beq	1027dc <_realloc_r+0x16c>
  10275a:	9b01      	ldr	r3, [sp, #4]
  10275c:	4299      	cmp	r1, r3
  10275e:	d100      	bne	102762 <_realloc_r+0xf2>
  102760:	e0f0      	b	102944 <_realloc_r+0x2d4>
  102762:	4643      	mov	r3, r8
  102764:	189f      	add	r7, r3, r2
  102766:	4662      	mov	r2, ip
  102768:	19d2      	add	r2, r2, r7
  10276a:	9204      	str	r2, [sp, #16]
  10276c:	4290      	cmp	r0, r2
  10276e:	dc37      	bgt	1027e0 <_realloc_r+0x170>
  102770:	68ca      	ldr	r2, [r1, #12]
  102772:	688b      	ldr	r3, [r1, #8]
  102774:	6093      	str	r3, [r2, #8]
  102776:	60da      	str	r2, [r3, #12]
  102778:	464b      	mov	r3, r9
  10277a:	68da      	ldr	r2, [r3, #12]
  10277c:	689b      	ldr	r3, [r3, #8]
  10277e:	60da      	str	r2, [r3, #12]
  102780:	6093      	str	r3, [r2, #8]
  102782:	4642      	mov	r2, r8
  102784:	464d      	mov	r5, r9
  102786:	3a04      	sub	r2, #4
  102788:	46ca      	mov	sl, r9
  10278a:	3508      	add	r5, #8
  10278c:	2a24      	cmp	r2, #36
  10278e:	d900      	bls	102792 <_realloc_r+0x122>
  102790:	e129      	b	1029e6 <_realloc_r+0x376>
  102792:	1c30      	mov	r0, r6		(add r0, r6, #0)
  102794:	1c2c      	mov	r4, r5		(add r4, r5, #0)
  102796:	2a13      	cmp	r2, #19
  102798:	d915      	bls	1027c6 <_realloc_r+0x156>
  10279a:	1c31      	mov	r1, r6		(add r1, r6, #0)
  10279c:	c908      	ldmia	r1!,{r3}
  10279e:	4648      	mov	r0, r9
  1027a0:	6083      	str	r3, [r0, #8]
  1027a2:	6873      	ldr	r3, [r6, #4]
  1027a4:	3408      	add	r4, #8
  1027a6:	60c3      	str	r3, [r0, #12]
  1027a8:	1d08      	add	r0, r1, #4
  1027aa:	2a1b      	cmp	r2, #27
  1027ac:	d90b      	bls	1027c6 <_realloc_r+0x156>
  1027ae:	684b      	ldr	r3, [r1, #4]
  1027b0:	4649      	mov	r1, r9
  1027b2:	610b      	str	r3, [r1, #16]
  1027b4:	6843      	ldr	r3, [r0, #4]
  1027b6:	1d01      	add	r1, r0, #4
  1027b8:	464e      	mov	r6, r9
  1027ba:	6173      	str	r3, [r6, #20]
  1027bc:	3408      	add	r4, #8
  1027be:	1d08      	add	r0, r1, #4
  1027c0:	2a24      	cmp	r2, #36
  1027c2:	d100      	bne	1027c6 <_realloc_r+0x156>
  1027c4:	e128      	b	102a18 <_realloc_r+0x3a8>
  1027c6:	1c01      	mov	r1, r0		(add r1, r0, #0)
  1027c8:	c908      	ldmia	r1!,{r3}
  1027ca:	1c22      	mov	r2, r4		(add r2, r4, #0)
  1027cc:	c208      	stmia	r2!,{r3}
  1027ce:	6843      	ldr	r3, [r0, #4]
  1027d0:	6063      	str	r3, [r4, #4]
  1027d2:	9f04      	ldr	r7, [sp, #16]
  1027d4:	684b      	ldr	r3, [r1, #4]
  1027d6:	464c      	mov	r4, r9
  1027d8:	6053      	str	r3, [r2, #4]
  1027da:	e771      	b	1026c0 <_realloc_r+0x50>
  1027dc:	4641      	mov	r1, r8
  1027de:	188f      	add	r7, r1, r2
  1027e0:	42b8      	cmp	r0, r7
  1027e2:	dc30      	bgt	102846 <_realloc_r+0x1d6>
  1027e4:	464b      	mov	r3, r9
  1027e6:	68da      	ldr	r2, [r3, #12]
  1027e8:	689b      	ldr	r3, [r3, #8]
  1027ea:	60da      	str	r2, [r3, #12]
  1027ec:	6093      	str	r3, [r2, #8]
  1027ee:	4642      	mov	r2, r8
  1027f0:	464d      	mov	r5, r9
  1027f2:	3a04      	sub	r2, #4
  1027f4:	46ca      	mov	sl, r9
  1027f6:	3508      	add	r5, #8
  1027f8:	2a24      	cmp	r2, #36
  1027fa:	d900      	bls	1027fe <_realloc_r+0x18e>
  1027fc:	e0fa      	b	1029f4 <_realloc_r+0x384>
  1027fe:	1c30      	mov	r0, r6		(add r0, r6, #0)
  102800:	1c2c      	mov	r4, r5		(add r4, r5, #0)
  102802:	2a13      	cmp	r2, #19
  102804:	d915      	bls	102832 <_realloc_r+0x1c2>
  102806:	1c31      	mov	r1, r6		(add r1, r6, #0)
  102808:	c908      	ldmia	r1!,{r3}
  10280a:	4648      	mov	r0, r9
  10280c:	6083      	str	r3, [r0, #8]
  10280e:	6873      	ldr	r3, [r6, #4]
  102810:	3408      	add	r4, #8
  102812:	60c3      	str	r3, [r0, #12]
  102814:	1d08      	add	r0, r1, #4
  102816:	2a1b      	cmp	r2, #27
  102818:	d90b      	bls	102832 <_realloc_r+0x1c2>
  10281a:	684b      	ldr	r3, [r1, #4]
  10281c:	4649      	mov	r1, r9
  10281e:	610b      	str	r3, [r1, #16]
  102820:	6843      	ldr	r3, [r0, #4]
  102822:	1d01      	add	r1, r0, #4
  102824:	464e      	mov	r6, r9
  102826:	6173      	str	r3, [r6, #20]
  102828:	3408      	add	r4, #8
  10282a:	1d08      	add	r0, r1, #4
  10282c:	2a24      	cmp	r2, #36
  10282e:	d100      	bne	102832 <_realloc_r+0x1c2>
  102830:	e0f9      	b	102a26 <_realloc_r+0x3b6>
  102832:	1c01      	mov	r1, r0		(add r1, r0, #0)
  102834:	c908      	ldmia	r1!,{r3}
  102836:	1c22      	mov	r2, r4		(add r2, r4, #0)
  102838:	c208      	stmia	r2!,{r3}
  10283a:	6843      	ldr	r3, [r0, #4]
  10283c:	6063      	str	r3, [r4, #4]
  10283e:	684b      	ldr	r3, [r1, #4]
  102840:	464c      	mov	r4, r9
  102842:	6053      	str	r3, [r2, #4]
  102844:	e73c      	b	1026c0 <_realloc_r+0x50>
  102846:	1c29      	mov	r1, r5		(add r1, r5, #0)
  102848:	4658      	mov	r0, fp
  10284a:	fb9bf7ff 	bl	101f84 <_malloc_r>
  10284e:	1c05      	mov	r5, r0		(add r5, r0, #0)
  102850:	2800      	cmp	r0, #0
  102852:	d100      	bne	102856 <_realloc_r+0x1e6>
  102854:	e743      	b	1026de <_realloc_r+0x6e>
  102856:	6863      	ldr	r3, [r4, #4]
  102858:	2201      	mov	r2, #1
  10285a:	1c01      	mov	r1, r0		(add r1, r0, #0)
  10285c:	4393      	bic	r3, r2
  10285e:	3908      	sub	r1, #8
  102860:	18e3      	add	r3, r4, r3
  102862:	4299      	cmp	r1, r3
  102864:	d100      	bne	102868 <_realloc_r+0x1f8>
  102866:	e0b6      	b	1029d6 <_realloc_r+0x366>
  102868:	4642      	mov	r2, r8
  10286a:	3a04      	sub	r2, #4
  10286c:	2a24      	cmp	r2, #36
  10286e:	d847      	bhi	102900 <_realloc_r+0x290>
  102870:	1c30      	mov	r0, r6		(add r0, r6, #0)
  102872:	1c2c      	mov	r4, r5		(add r4, r5, #0)
  102874:	2a13      	cmp	r2, #19
  102876:	d914      	bls	1028a2 <_realloc_r+0x232>
  102878:	1c37      	mov	r7, r6		(add r7, r6, #0)
  10287a:	cf08      	ldmia	r7!,{r3}
  10287c:	1c29      	mov	r1, r5		(add r1, r5, #0)
  10287e:	c108      	stmia	r1!,{r3}
  102880:	6873      	ldr	r3, [r6, #4]
  102882:	1d0c      	add	r4, r1, #4
  102884:	606b      	str	r3, [r5, #4]
  102886:	1d38      	add	r0, r7, #4
  102888:	2a1b      	cmp	r2, #27
  10288a:	d90a      	bls	1028a2 <_realloc_r+0x232>
  10288c:	687b      	ldr	r3, [r7, #4]
  10288e:	604b      	str	r3, [r1, #4]
  102890:	6843      	ldr	r3, [r0, #4]
  102892:	1d27      	add	r7, r4, #4
  102894:	1d01      	add	r1, r0, #4
  102896:	6063      	str	r3, [r4, #4]
  102898:	1d08      	add	r0, r1, #4
  10289a:	1d3c      	add	r4, r7, #4
  10289c:	2a24      	cmp	r2, #36
  10289e:	d100      	bne	1028a2 <_realloc_r+0x232>
  1028a0:	e0ae      	b	102a00 <_realloc_r+0x390>
  1028a2:	1c01      	mov	r1, r0		(add r1, r0, #0)
  1028a4:	c908      	ldmia	r1!,{r3}
  1028a6:	1c22      	mov	r2, r4		(add r2, r4, #0)
  1028a8:	c208      	stmia	r2!,{r3}
  1028aa:	6843      	ldr	r3, [r0, #4]
  1028ac:	6063      	str	r3, [r4, #4]
  1028ae:	684b      	ldr	r3, [r1, #4]
  1028b0:	6053      	str	r3, [r2, #4]
  1028b2:	4658      	mov	r0, fp
  1028b4:	1c31      	mov	r1, r6		(add r1, r6, #0)
  1028b6:	f80bf7ff 	bl	1018d0 <_free_r>
  1028ba:	e710      	b	1026de <_realloc_r+0x6e>
  1028bc:	1c11      	mov	r1, r2		(add r1, r2, #0)
  1028be:	fb61f7ff 	bl	101f84 <_malloc_r>
  1028c2:	1c05      	mov	r5, r0		(add r5, r0, #0)
  1028c4:	e719      	b	1026fa <_realloc_r+0x8a>
  1028c6:	6863      	ldr	r3, [r4, #4]
  1028c8:	2201      	mov	r2, #1
  1028ca:	9e03      	ldr	r6, [sp, #12]
  1028cc:	4013      	and	r3, r2
  1028ce:	4333      	orr	r3, r6
  1028d0:	6063      	str	r3, [r4, #4]
  1028d2:	1c03      	mov	r3, r0		(add r3, r0, #0)
  1028d4:	4451      	add	r1, sl
  1028d6:	4313      	orr	r3, r2
  1028d8:	604b      	str	r3, [r1, #4]
  1028da:	1808      	add	r0, r1, r0
  1028dc:	6843      	ldr	r3, [r0, #4]
  1028de:	4313      	orr	r3, r2
  1028e0:	6043      	str	r3, [r0, #4]
  1028e2:	3108      	add	r1, #8
  1028e4:	4658      	mov	r0, fp
  1028e6:	fff3f7fe 	bl	1018d0 <_free_r>
  1028ea:	e6f8      	b	1026de <_realloc_r+0x6e>
  1028ec:	2100      	mov	r1, #0
  1028ee:	468c      	mov	ip, r1
  1028f0:	e728      	b	102744 <_realloc_r+0xd4>
  1028f2:	68ca      	ldr	r2, [r1, #12]
  1028f4:	688b      	ldr	r3, [r1, #8]
  1028f6:	1c25      	mov	r5, r4		(add r5, r4, #0)
  1028f8:	3508      	add	r5, #8
  1028fa:	60da      	str	r2, [r3, #12]
  1028fc:	6093      	str	r3, [r2, #8]
  1028fe:	e6df      	b	1026c0 <_realloc_r+0x50>
  102900:	1c31      	mov	r1, r6		(add r1, r6, #0)
  102902:	fe39f7ff 	bl	102578 <memmove>
  102906:	e7d4      	b	1028b2 <_realloc_r+0x242>
  102908:	684b      	ldr	r3, [r1, #4]
  10290a:	4662      	mov	r2, ip
  10290c:	4393      	bic	r3, r2
  10290e:	469c      	mov	ip, r3
  102910:	9b03      	ldr	r3, [sp, #12]
  102912:	4642      	mov	r2, r8
  102914:	4462      	add	r2, ip
  102916:	3310      	add	r3, #16
  102918:	429a      	cmp	r2, r3
  10291a:	da00      	bge	10291e <_realloc_r+0x2ae>
  10291c:	e712      	b	102744 <_realloc_r+0xd4>
  10291e:	9903      	ldr	r1, [sp, #12]
  102920:	9b00      	ldr	r3, [sp, #0]
  102922:	9e03      	ldr	r6, [sp, #12]
  102924:	4451      	add	r1, sl
  102926:	6099      	str	r1, [r3, #8]
  102928:	1b93      	sub	r3, r2, r6
  10292a:	2201      	mov	r2, #1
  10292c:	4313      	orr	r3, r2
  10292e:	604b      	str	r3, [r1, #4]
  102930:	6863      	ldr	r3, [r4, #4]
  102932:	4013      	and	r3, r2
  102934:	4333      	orr	r3, r6
  102936:	6063      	str	r3, [r4, #4]
  102938:	4658      	mov	r0, fp
  10293a:	fe97f7ff 	bl	10266c <__malloc_unlock>
  10293e:	1c25      	mov	r5, r4		(add r5, r4, #0)
  102940:	3508      	add	r5, #8
  102942:	e6da      	b	1026fa <_realloc_r+0x8a>
  102944:	4641      	mov	r1, r8
  102946:	9b03      	ldr	r3, [sp, #12]
  102948:	188f      	add	r7, r1, r2
  10294a:	4662      	mov	r2, ip
  10294c:	19d2      	add	r2, r2, r7
  10294e:	3310      	add	r3, #16
  102950:	9202      	str	r2, [sp, #8]
  102952:	429a      	cmp	r2, r3
  102954:	da00      	bge	102958 <_realloc_r+0x2e8>
  102956:	e743      	b	1027e0 <_realloc_r+0x170>
  102958:	464b      	mov	r3, r9
  10295a:	68da      	ldr	r2, [r3, #12]
  10295c:	689b      	ldr	r3, [r3, #8]
  10295e:	60da      	str	r2, [r3, #12]
  102960:	6093      	str	r3, [r2, #8]
  102962:	4642      	mov	r2, r8
  102964:	464d      	mov	r5, r9
  102966:	3a04      	sub	r2, #4
  102968:	3508      	add	r5, #8
  10296a:	2a24      	cmp	r2, #36
  10296c:	d84f      	bhi	102a0e <_realloc_r+0x39e>
  10296e:	1c30      	mov	r0, r6		(add r0, r6, #0)
  102970:	1c2c      	mov	r4, r5		(add r4, r5, #0)
  102972:	2a13      	cmp	r2, #19
  102974:	d914      	bls	1029a0 <_realloc_r+0x330>
  102976:	1c31      	mov	r1, r6		(add r1, r6, #0)
  102978:	c908      	ldmia	r1!,{r3}
  10297a:	4648      	mov	r0, r9
  10297c:	6083      	str	r3, [r0, #8]
  10297e:	6873      	ldr	r3, [r6, #4]
  102980:	3408      	add	r4, #8
  102982:	60c3      	str	r3, [r0, #12]
  102984:	1d08      	add	r0, r1, #4
  102986:	2a1b      	cmp	r2, #27
  102988:	d90a      	bls	1029a0 <_realloc_r+0x330>
  10298a:	684b      	ldr	r3, [r1, #4]
  10298c:	4649      	mov	r1, r9
  10298e:	610b      	str	r3, [r1, #16]
  102990:	6843      	ldr	r3, [r0, #4]
  102992:	1d01      	add	r1, r0, #4
  102994:	464e      	mov	r6, r9
  102996:	6173      	str	r3, [r6, #20]
  102998:	3408      	add	r4, #8
  10299a:	1d08      	add	r0, r1, #4
  10299c:	2a24      	cmp	r2, #36
  10299e:	d049      	beq	102a34 <_realloc_r+0x3c4>
  1029a0:	1c01      	mov	r1, r0		(add r1, r0, #0)
  1029a2:	c908      	ldmia	r1!,{r3}
  1029a4:	1c22      	mov	r2, r4		(add r2, r4, #0)
  1029a6:	c208      	stmia	r2!,{r3}
  1029a8:	6843      	ldr	r3, [r0, #4]
  1029aa:	6063      	str	r3, [r4, #4]
  1029ac:	684b      	ldr	r3, [r1, #4]
  1029ae:	6053      	str	r3, [r2, #4]
  1029b0:	9a02      	ldr	r2, [sp, #8]
  1029b2:	9e03      	ldr	r6, [sp, #12]
  1029b4:	9903      	ldr	r1, [sp, #12]
  1029b6:	1b93      	sub	r3, r2, r6
  1029b8:	2201      	mov	r2, #1
  1029ba:	4449      	add	r1, r9
  1029bc:	9800      	ldr	r0, [sp, #0]
  1029be:	4313      	orr	r3, r2
  1029c0:	604b      	str	r3, [r1, #4]
  1029c2:	6081      	str	r1, [r0, #8]
  1029c4:	4648      	mov	r0, r9
  1029c6:	6843      	ldr	r3, [r0, #4]
  1029c8:	4013      	and	r3, r2
  1029ca:	4333      	orr	r3, r6
  1029cc:	6043      	str	r3, [r0, #4]
  1029ce:	4658      	mov	r0, fp
  1029d0:	fe4cf7ff 	bl	10266c <__malloc_unlock>
  1029d4:	e691      	b	1026fa <_realloc_r+0x8a>
  1029d6:	684b      	ldr	r3, [r1, #4]
  1029d8:	2203      	mov	r2, #3
  1029da:	4393      	bic	r3, r2
  1029dc:	4640      	mov	r0, r8
  1029de:	1c25      	mov	r5, r4		(add r5, r4, #0)
  1029e0:	18c7      	add	r7, r0, r3
  1029e2:	3508      	add	r5, #8
  1029e4:	e66c      	b	1026c0 <_realloc_r+0x50>
  1029e6:	1c28      	mov	r0, r5		(add r0, r5, #0)
  1029e8:	1c31      	mov	r1, r6		(add r1, r6, #0)
  1029ea:	fdc5f7ff 	bl	102578 <memmove>
  1029ee:	9f04      	ldr	r7, [sp, #16]
  1029f0:	464c      	mov	r4, r9
  1029f2:	e665      	b	1026c0 <_realloc_r+0x50>
  1029f4:	1c28      	mov	r0, r5		(add r0, r5, #0)
  1029f6:	1c31      	mov	r1, r6		(add r1, r6, #0)
  1029f8:	fdbef7ff 	bl	102578 <memmove>
  1029fc:	464c      	mov	r4, r9
  1029fe:	e65f      	b	1026c0 <_realloc_r+0x50>
  102a00:	684b      	ldr	r3, [r1, #4]
  102a02:	607b      	str	r3, [r7, #4]
  102a04:	6843      	ldr	r3, [r0, #4]
  102a06:	3008      	add	r0, #8
  102a08:	6063      	str	r3, [r4, #4]
  102a0a:	3408      	add	r4, #8
  102a0c:	e749      	b	1028a2 <_realloc_r+0x232>
  102a0e:	1c28      	mov	r0, r5		(add r0, r5, #0)
  102a10:	1c31      	mov	r1, r6		(add r1, r6, #0)
  102a12:	fdb1f7ff 	bl	102578 <memmove>
  102a16:	e7cb      	b	1029b0 <_realloc_r+0x340>
  102a18:	684b      	ldr	r3, [r1, #4]
  102a1a:	61b3      	str	r3, [r6, #24]
  102a1c:	6843      	ldr	r3, [r0, #4]
  102a1e:	3408      	add	r4, #8
  102a20:	3008      	add	r0, #8
  102a22:	61f3      	str	r3, [r6, #28]
  102a24:	e6cf      	b	1027c6 <_realloc_r+0x156>
  102a26:	684b      	ldr	r3, [r1, #4]
  102a28:	61b3      	str	r3, [r6, #24]
  102a2a:	6843      	ldr	r3, [r0, #4]
  102a2c:	3408      	add	r4, #8
  102a2e:	3008      	add	r0, #8
  102a30:	61f3      	str	r3, [r6, #28]
  102a32:	e6fe      	b	102832 <_realloc_r+0x1c2>
  102a34:	684b      	ldr	r3, [r1, #4]
  102a36:	61b3      	str	r3, [r6, #24]
  102a38:	6843      	ldr	r3, [r0, #4]
  102a3a:	3408      	add	r4, #8
  102a3c:	3008      	add	r0, #8
  102a3e:	61f3      	str	r3, [r6, #28]
  102a40:	e7ae      	b	1029a0 <_realloc_r+0x330>
  102a42:	0000      	lsl	r0, r0, #0
  102a44:	0474      	lsl	r4, r6, #17
  102a46:	0020      	lsl	r0, r4, #0

00102a48 <__sclose>:
  102a48:	b500      	push	{lr}
  102a4a:	4b04      	ldr	r3, [pc, #16]	(102a5c <.text+0x2a5c>)
  102a4c:	1c02      	mov	r2, r0		(add r2, r0, #0)
  102a4e:	6818      	ldr	r0, [r3, #0]
  102a50:	230e      	mov	r3, #14
  102a52:	5ed1      	ldrsh	r1, [r2, r3]
  102a54:	fcb0f7fd 	bl	1003b8 <_close_r>
  102a58:	bc02      	pop	{r1}
  102a5a:	4708      	bx	r1
  102a5c:	0060      	lsl	r0, r4, #1
  102a5e:	0020      	lsl	r0, r4, #0

00102a60 <__sseek>:
  102a60:	b530      	push	{r4, r5, lr}
  102a62:	1c13      	mov	r3, r2		(add r3, r2, #0)
  102a64:	4a0c      	ldr	r2, [pc, #48]	(102a98 <.text+0x2a98>)
  102a66:	1c05      	mov	r5, r0		(add r5, r0, #0)
  102a68:	1c0c      	mov	r4, r1		(add r4, r1, #0)
  102a6a:	6810      	ldr	r0, [r2, #0]
  102a6c:	220e      	mov	r2, #14
  102a6e:	5ea9      	ldrsh	r1, [r5, r2]
  102a70:	1c22      	mov	r2, r4		(add r2, r4, #0)
  102a72:	fca3f7fd 	bl	1003bc <_lseek_r>
  102a76:	1c43      	add	r3, r0, #1
  102a78:	d008      	beq	102a8c <__sseek+0x2c>
  102a7a:	89ab      	ldrh	r3, [r5, #12]
  102a7c:	2280      	mov	r2, #128
  102a7e:	0152      	lsl	r2, r2, #5
  102a80:	4313      	orr	r3, r2
  102a82:	81ab      	strh	r3, [r5, #12]
  102a84:	6528      	str	r0, [r5, #80]
  102a86:	bc30      	pop	{r4, r5}
  102a88:	bc02      	pop	{r1}
  102a8a:	4708      	bx	r1
  102a8c:	89ab      	ldrh	r3, [r5, #12]
  102a8e:	4a03      	ldr	r2, [pc, #12]	(102a9c <.text+0x2a9c>)
  102a90:	4013      	and	r3, r2
  102a92:	81ab      	strh	r3, [r5, #12]
  102a94:	e7f7      	b	102a86 <__sseek+0x26>
  102a96:	0000      	lsl	r0, r0, #0
  102a98:	0060      	lsl	r0, r4, #1
  102a9a:	0020      	lsl	r0, r4, #0
  102a9c:	efff      	undefined
  102a9e:	ffff      	second half of BL instruction 0xffff

00102aa0 <__swrite>:
  102aa0:	b5f0      	push	{r4, r5, r6, r7, lr}
  102aa2:	1c17      	mov	r7, r2		(add r7, r2, #0)
  102aa4:	8982      	ldrh	r2, [r0, #12]
  102aa6:	1c04      	mov	r4, r0		(add r4, r0, #0)
  102aa8:	1c0e      	mov	r6, r1		(add r6, r1, #0)
  102aaa:	05d3      	lsl	r3, r2, #23
  102aac:	d40d      	bmi	102aca <__swrite+0x2a>
  102aae:	4d0c      	ldr	r5, [pc, #48]	(102ae0 <.text+0x2ae0>)
  102ab0:	4b0c      	ldr	r3, [pc, #48]	(102ae4 <.text+0x2ae4>)
  102ab2:	4013      	and	r3, r2
  102ab4:	81a3      	strh	r3, [r4, #12]
  102ab6:	6828      	ldr	r0, [r5, #0]
  102ab8:	230e      	mov	r3, #14
  102aba:	5ee1      	ldrsh	r1, [r4, r3]
  102abc:	1c32      	mov	r2, r6		(add r2, r6, #0)
  102abe:	1c3b      	mov	r3, r7		(add r3, r7, #0)
  102ac0:	fc94f7fd 	bl	1003ec <_write_r>
  102ac4:	bcf0      	pop	{r4, r5, r6, r7}
  102ac6:	bc02      	pop	{r1}
  102ac8:	4708      	bx	r1
  102aca:	4d05      	ldr	r5, [pc, #20]	(102ae0 <.text+0x2ae0>)
  102acc:	230e      	mov	r3, #14
  102ace:	5ee1      	ldrsh	r1, [r4, r3]
  102ad0:	2200      	mov	r2, #0
  102ad2:	6828      	ldr	r0, [r5, #0]
  102ad4:	2302      	mov	r3, #2
  102ad6:	fc71f7fd 	bl	1003bc <_lseek_r>
  102ada:	89a2      	ldrh	r2, [r4, #12]
  102adc:	e7e8      	b	102ab0 <__swrite+0x10>
  102ade:	0000      	lsl	r0, r0, #0
  102ae0:	0060      	lsl	r0, r4, #1
  102ae2:	0020      	lsl	r0, r4, #0
  102ae4:	efff      	undefined
  102ae6:	ffff      	second half of BL instruction 0xffff

00102ae8 <__sread>:
  102ae8:	b530      	push	{r4, r5, lr}
  102aea:	1c13      	mov	r3, r2		(add r3, r2, #0)
  102aec:	4a0a      	ldr	r2, [pc, #40]	(102b18 <.text+0x2b18>)
  102aee:	1c05      	mov	r5, r0		(add r5, r0, #0)
  102af0:	1c0c      	mov	r4, r1		(add r4, r1, #0)
  102af2:	6810      	ldr	r0, [r2, #0]
  102af4:	220e      	mov	r2, #14
  102af6:	5ea9      	ldrsh	r1, [r5, r2]
  102af8:	1c22      	mov	r2, r4		(add r2, r4, #0)
  102afa:	fc8df7fd 	bl	100418 <_read_r>
  102afe:	2800      	cmp	r0, #0
  102b00:	db05      	blt	102b0e <__sread+0x26>
  102b02:	6d2b      	ldr	r3, [r5, #80]
  102b04:	181b      	add	r3, r3, r0
  102b06:	652b      	str	r3, [r5, #80]
  102b08:	bc30      	pop	{r4, r5}
  102b0a:	bc02      	pop	{r1}
  102b0c:	4708      	bx	r1
  102b0e:	89ab      	ldrh	r3, [r5, #12]
  102b10:	4a02      	ldr	r2, [pc, #8]	(102b1c <.text+0x2b1c>)
  102b12:	4013      	and	r3, r2
  102b14:	81ab      	strh	r3, [r5, #12]
  102b16:	e7f7      	b	102b08 <__sread+0x20>
  102b18:	0060      	lsl	r0, r4, #1
  102b1a:	0020      	lsl	r0, r4, #0
  102b1c:	efff      	undefined
  102b1e:	ffff      	second half of BL instruction 0xffff

00102b20 <strcmp>:
  102b20:	b530      	push	{r4, r5, lr}
  102b22:	1c02      	mov	r2, r0		(add r2, r0, #0)
  102b24:	430a      	orr	r2, r1
  102b26:	2303      	mov	r3, #3
  102b28:	1c04      	mov	r4, r0		(add r4, r0, #0)
  102b2a:	421a      	tst	r2, r3
  102b2c:	d11e      	bne	102b6c <strcmp+0x4c>
  102b2e:	6802      	ldr	r2, [r0, #0]
  102b30:	680b      	ldr	r3, [r1, #0]
  102b32:	429a      	cmp	r2, r3
  102b34:	d111      	bne	102b5a <strcmp+0x3a>
  102b36:	4c12      	ldr	r4, [pc, #72]	(102b80 <.text+0x2b80>)
  102b38:	1913      	add	r3, r2, r4
  102b3a:	4c12      	ldr	r4, [pc, #72]	(102b84 <.text+0x2b84>)
  102b3c:	4023      	and	r3, r4
  102b3e:	4393      	bic	r3, r2
  102b40:	d005      	beq	102b4e <strcmp+0x2e>
  102b42:	e01b      	b	102b7c <strcmp+0x5c>
  102b44:	4d0e      	ldr	r5, [pc, #56]	(102b80 <.text+0x2b80>)
  102b46:	1953      	add	r3, r2, r5
  102b48:	4023      	and	r3, r4
  102b4a:	4393      	bic	r3, r2
  102b4c:	d116      	bne	102b7c <strcmp+0x5c>
  102b4e:	3004      	add	r0, #4
  102b50:	3104      	add	r1, #4
  102b52:	6802      	ldr	r2, [r0, #0]
  102b54:	680b      	ldr	r3, [r1, #0]
  102b56:	429a      	cmp	r2, r3
  102b58:	d0f4      	beq	102b44 <strcmp+0x24>
  102b5a:	1c04      	mov	r4, r0		(add r4, r0, #0)
  102b5c:	7823      	ldrb	r3, [r4, #0]
  102b5e:	2b00      	cmp	r3, #0
  102b60:	d007      	beq	102b72 <strcmp+0x52>
  102b62:	7808      	ldrb	r0, [r1, #0]
  102b64:	4298      	cmp	r0, r3
  102b66:	d105      	bne	102b74 <strcmp+0x54>
  102b68:	3401      	add	r4, #1
  102b6a:	3101      	add	r1, #1
  102b6c:	7823      	ldrb	r3, [r4, #0]
  102b6e:	2b00      	cmp	r3, #0
  102b70:	d1f7      	bne	102b62 <strcmp+0x42>
  102b72:	7808      	ldrb	r0, [r1, #0]
  102b74:	1a18      	sub	r0, r3, r0
  102b76:	bc30      	pop	{r4, r5}
  102b78:	bc02      	pop	{r1}
  102b7a:	4708      	bx	r1
  102b7c:	2000      	mov	r0, #0
  102b7e:	e7fa      	b	102b76 <strcmp+0x56>
  102b80:	feff      	second half of BL instruction 0xfeff
  102b82:	fefe      	second half of BL instruction 0xfefe
  102b84:	8080      	strh	r0, [r0, #4]
  102b86:	8080      	strh	r0, [r0, #4]

00102b88 <strlen>:
  102b88:	b530      	push	{r4, r5, lr}
  102b8a:	2303      	mov	r3, #3
  102b8c:	1c04      	mov	r4, r0		(add r4, r0, #0)
  102b8e:	4218      	tst	r0, r3
  102b90:	d116      	bne	102bc0 <strlen+0x38>
  102b92:	490f      	ldr	r1, [pc, #60]	(102bd0 <.text+0x2bd0>)
  102b94:	6802      	ldr	r2, [r0, #0]
  102b96:	1853      	add	r3, r2, r1
  102b98:	490e      	ldr	r1, [pc, #56]	(102bd4 <.text+0x2bd4>)
  102b9a:	400b      	and	r3, r1
  102b9c:	4393      	bic	r3, r2
  102b9e:	d10f      	bne	102bc0 <strlen+0x38>
  102ba0:	3004      	add	r0, #4
  102ba2:	6802      	ldr	r2, [r0, #0]
  102ba4:	4d0a      	ldr	r5, [pc, #40]	(102bd0 <.text+0x2bd0>)
  102ba6:	1953      	add	r3, r2, r5
  102ba8:	400b      	and	r3, r1
  102baa:	4393      	bic	r3, r2
  102bac:	d108      	bne	102bc0 <strlen+0x38>
  102bae:	3004      	add	r0, #4
  102bb0:	6802      	ldr	r2, [r0, #0]
  102bb2:	4d07      	ldr	r5, [pc, #28]	(102bd0 <.text+0x2bd0>)
  102bb4:	1953      	add	r3, r2, r5
  102bb6:	400b      	and	r3, r1
  102bb8:	4393      	bic	r3, r2
  102bba:	d0f1      	beq	102ba0 <strlen+0x18>
  102bbc:	e000      	b	102bc0 <strlen+0x38>
  102bbe:	3001      	add	r0, #1
  102bc0:	7803      	ldrb	r3, [r0, #0]
  102bc2:	2b00      	cmp	r3, #0
  102bc4:	d1fb      	bne	102bbe <strlen+0x36>
  102bc6:	1b00      	sub	r0, r0, r4
  102bc8:	bc30      	pop	{r4, r5}
  102bca:	bc02      	pop	{r1}
  102bcc:	4708      	bx	r1
  102bce:	0000      	lsl	r0, r0, #0
  102bd0:	feff      	second half of BL instruction 0xfeff
  102bd2:	fefe      	second half of BL instruction 0xfefe
  102bd4:	8080      	strh	r0, [r0, #4]
  102bd6:	8080      	strh	r0, [r0, #4]

00102bd8 <_fclose_r>:
  102bd8:	b570      	push	{r4, r5, r6, lr}
  102bda:	1c05      	mov	r5, r0		(add r5, r0, #0)
  102bdc:	1c0c      	mov	r4, r1		(add r4, r1, #0)
  102bde:	2900      	cmp	r1, #0
  102be0:	d037      	beq	102c52 <_fclose_r+0x7a>
  102be2:	fd5ff7fe 	bl	1016a4 <__sfp_lock_acquire>
  102be6:	2d00      	cmp	r5, #0
  102be8:	d002      	beq	102bf0 <_fclose_r+0x18>
  102bea:	6bab      	ldr	r3, [r5, #56]
  102bec:	2b00      	cmp	r3, #0
  102bee:	d032      	beq	102c56 <_fclose_r+0x7e>
  102bf0:	89a3      	ldrh	r3, [r4, #12]
  102bf2:	2b00      	cmp	r3, #0
  102bf4:	d02b      	beq	102c4e <_fclose_r+0x76>
  102bf6:	071a      	lsl	r2, r3, #28
  102bf8:	d431      	bmi	102c5e <_fclose_r+0x86>
  102bfa:	2600      	mov	r6, #0
  102bfc:	6ae3      	ldr	r3, [r4, #44]
  102bfe:	2b00      	cmp	r3, #0
  102c00:	d004      	beq	102c0c <_fclose_r+0x34>
  102c02:	69e0      	ldr	r0, [r4, #28]
  102c04:	f844f000 	bl	102c90 <.text+0x2c90>
  102c08:	2800      	cmp	r0, #0
  102c0a:	db32      	blt	102c72 <_fclose_r+0x9a>
  102c0c:	89a3      	ldrh	r3, [r4, #12]
  102c0e:	061a      	lsl	r2, r3, #24
  102c10:	d42a      	bmi	102c68 <_fclose_r+0x90>
  102c12:	6b21      	ldr	r1, [r4, #48]
  102c14:	2900      	cmp	r1, #0
  102c16:	d009      	beq	102c2c <_fclose_r+0x54>
  102c18:	1c23      	mov	r3, r4		(add r3, r4, #0)
  102c1a:	3340      	add	r3, #64
  102c1c:	4299      	cmp	r1, r3
  102c1e:	d003      	beq	102c28 <_fclose_r+0x50>
  102c20:	4b15      	ldr	r3, [pc, #84]	(102c78 <.text+0x2c78>)
  102c22:	6818      	ldr	r0, [r3, #0]
  102c24:	fe54f7fe 	bl	1018d0 <_free_r>
  102c28:	2300      	mov	r3, #0
  102c2a:	6323      	str	r3, [r4, #48]
  102c2c:	6c61      	ldr	r1, [r4, #68]
  102c2e:	2900      	cmp	r1, #0
  102c30:	d005      	beq	102c3e <_fclose_r+0x66>
  102c32:	4b11      	ldr	r3, [pc, #68]	(102c78 <.text+0x2c78>)
  102c34:	6818      	ldr	r0, [r3, #0]
  102c36:	fe4bf7fe 	bl	1018d0 <_free_r>
  102c3a:	2300      	mov	r3, #0
  102c3c:	6463      	str	r3, [r4, #68]
  102c3e:	2300      	mov	r3, #0
  102c40:	81a3      	strh	r3, [r4, #12]
  102c42:	fd31f7fe 	bl	1016a8 <__sfp_lock_release>
  102c46:	1c30      	mov	r0, r6		(add r0, r6, #0)
  102c48:	bc70      	pop	{r4, r5, r6}
  102c4a:	bc02      	pop	{r1}
  102c4c:	4708      	bx	r1
  102c4e:	fd2bf7fe 	bl	1016a8 <__sfp_lock_release>
  102c52:	2600      	mov	r6, #0
  102c54:	e7f7      	b	102c46 <_fclose_r+0x6e>
  102c56:	1c28      	mov	r0, r5		(add r0, r5, #0)
  102c58:	fd2cf7fe 	bl	1016b4 <__sinit>
  102c5c:	e7c8      	b	102bf0 <_fclose_r+0x18>
  102c5e:	1c20      	mov	r0, r4		(add r0, r4, #0)
  102c60:	fcbcf7fe 	bl	1015dc <fflush>
  102c64:	1c06      	mov	r6, r0		(add r6, r0, #0)
  102c66:	e7c9      	b	102bfc <_fclose_r+0x24>
  102c68:	6921      	ldr	r1, [r4, #16]
  102c6a:	1c28      	mov	r0, r5		(add r0, r5, #0)
  102c6c:	fe30f7fe 	bl	1018d0 <_free_r>
  102c70:	e7cf      	b	102c12 <_fclose_r+0x3a>
  102c72:	2601      	mov	r6, #1
  102c74:	4276      	neg	r6, r6
  102c76:	e7c9      	b	102c0c <_fclose_r+0x34>
  102c78:	0060      	lsl	r0, r4, #1
  102c7a:	0020      	lsl	r0, r4, #0

00102c7c <fclose>:
  102c7c:	b500      	push	{lr}
  102c7e:	4b03      	ldr	r3, [pc, #12]	(102c8c <.text+0x2c8c>)
  102c80:	1c01      	mov	r1, r0		(add r1, r0, #0)
  102c82:	6818      	ldr	r0, [r3, #0]
  102c84:	ffa8f7ff 	bl	102bd8 <_fclose_r>
  102c88:	bc02      	pop	{r1}
  102c8a:	4708      	bx	r1
  102c8c:	0060      	lsl	r0, r4, #1
  102c8e:	0020      	lsl	r0, r4, #0
  102c90:	4718      	bx	r3
  102c92:	46c0      	nop			(mov r8, r8)

00102c94 <__aeabi_uidiv>:
  102c94:	2900      	cmp	r1, #0
  102c96:	d034      	beq	102d02 <__aeabi_uidiv+0x6e>
  102c98:	2301      	mov	r3, #1
  102c9a:	2200      	mov	r2, #0
  102c9c:	b410      	push	{r4}
  102c9e:	4288      	cmp	r0, r1
  102ca0:	d32c      	bcc	102cfc <__aeabi_uidiv+0x68>
  102ca2:	2401      	mov	r4, #1
  102ca4:	0724      	lsl	r4, r4, #28
  102ca6:	42a1      	cmp	r1, r4
  102ca8:	d204      	bcs	102cb4 <__aeabi_uidiv+0x20>
  102caa:	4281      	cmp	r1, r0
  102cac:	d202      	bcs	102cb4 <__aeabi_uidiv+0x20>
  102cae:	0109      	lsl	r1, r1, #4
  102cb0:	011b      	lsl	r3, r3, #4
  102cb2:	e7f8      	b	102ca6 <__aeabi_uidiv+0x12>
  102cb4:	00e4      	lsl	r4, r4, #3
  102cb6:	42a1      	cmp	r1, r4
  102cb8:	d204      	bcs	102cc4 <__aeabi_uidiv+0x30>
  102cba:	4281      	cmp	r1, r0
  102cbc:	d202      	bcs	102cc4 <__aeabi_uidiv+0x30>
  102cbe:	0049      	lsl	r1, r1, #1
  102cc0:	005b      	lsl	r3, r3, #1
  102cc2:	e7f8      	b	102cb6 <__aeabi_uidiv+0x22>
  102cc4:	4288      	cmp	r0, r1
  102cc6:	d301      	bcc	102ccc <__aeabi_uidiv+0x38>
  102cc8:	1a40      	sub	r0, r0, r1
  102cca:	431a      	orr	r2, r3
  102ccc:	084c      	lsr	r4, r1, #1
  102cce:	42a0      	cmp	r0, r4
  102cd0:	d302      	bcc	102cd8 <__aeabi_uidiv+0x44>
  102cd2:	1b00      	sub	r0, r0, r4
  102cd4:	085c      	lsr	r4, r3, #1
  102cd6:	4322      	orr	r2, r4
  102cd8:	088c      	lsr	r4, r1, #2
  102cda:	42a0      	cmp	r0, r4
  102cdc:	d302      	bcc	102ce4 <__aeabi_uidiv+0x50>
  102cde:	1b00      	sub	r0, r0, r4
  102ce0:	089c      	lsr	r4, r3, #2
  102ce2:	4322      	orr	r2, r4
  102ce4:	08cc      	lsr	r4, r1, #3
  102ce6:	42a0      	cmp	r0, r4
  102ce8:	d302      	bcc	102cf0 <__aeabi_uidiv+0x5c>
  102cea:	1b00      	sub	r0, r0, r4
  102cec:	08dc      	lsr	r4, r3, #3
  102cee:	4322      	orr	r2, r4
  102cf0:	2800      	cmp	r0, #0
  102cf2:	d003      	beq	102cfc <__aeabi_uidiv+0x68>
  102cf4:	091b      	lsr	r3, r3, #4
  102cf6:	d001      	beq	102cfc <__aeabi_uidiv+0x68>
  102cf8:	0909      	lsr	r1, r1, #4
  102cfa:	e7e3      	b	102cc4 <__aeabi_uidiv+0x30>
  102cfc:	1c10      	mov	r0, r2		(add r0, r2, #0)
  102cfe:	bc10      	pop	{r4}
  102d00:	4770      	bx	lr
  102d02:	b502      	push	{r1, lr}
  102d04:	f870f000 	bl	102de8 <__aeabi_idiv0>
  102d08:	2000      	mov	r0, #0
  102d0a:	bc06      	pop	{r1, r2}
  102d0c:	4710      	bx	r2
	...

00102d10 <__aeabi_uidivmod>:
  102d10:	b503      	push	{r0, r1, lr}
  102d12:	ffbff7ff 	bl	102c94 <__aeabi_uidiv>
  102d16:	bc0e      	pop	{r1, r2, r3}
  102d18:	4342      	mul	r2, r0
  102d1a:	1a89      	sub	r1, r1, r2
  102d1c:	4718      	bx	r3
  102d1e:	46c0      	nop			(mov r8, r8)

00102d20 <__umodsi3>:
  102d20:	2900      	cmp	r1, #0
  102d22:	d05a      	beq	102dda <__umodsi3+0xba>
  102d24:	2301      	mov	r3, #1
  102d26:	4288      	cmp	r0, r1
  102d28:	d200      	bcs	102d2c <__umodsi3+0xc>
  102d2a:	4770      	bx	lr
  102d2c:	b410      	push	{r4}
  102d2e:	2401      	mov	r4, #1
  102d30:	0724      	lsl	r4, r4, #28
  102d32:	42a1      	cmp	r1, r4
  102d34:	d204      	bcs	102d40 <__umodsi3+0x20>
  102d36:	4281      	cmp	r1, r0
  102d38:	d202      	bcs	102d40 <__umodsi3+0x20>
  102d3a:	0109      	lsl	r1, r1, #4
  102d3c:	011b      	lsl	r3, r3, #4
  102d3e:	e7f8      	b	102d32 <__umodsi3+0x12>
  102d40:	00e4      	lsl	r4, r4, #3
  102d42:	42a1      	cmp	r1, r4
  102d44:	d204      	bcs	102d50 <__umodsi3+0x30>
  102d46:	4281      	cmp	r1, r0
  102d48:	d202      	bcs	102d50 <__umodsi3+0x30>
  102d4a:	0049      	lsl	r1, r1, #1
  102d4c:	005b      	lsl	r3, r3, #1
  102d4e:	e7f8      	b	102d42 <__umodsi3+0x22>
  102d50:	2200      	mov	r2, #0
  102d52:	4288      	cmp	r0, r1
  102d54:	d300      	bcc	102d58 <__umodsi3+0x38>
  102d56:	1a40      	sub	r0, r0, r1
  102d58:	084c      	lsr	r4, r1, #1
  102d5a:	42a0      	cmp	r0, r4
  102d5c:	d305      	bcc	102d6a <__umodsi3+0x4a>
  102d5e:	1b00      	sub	r0, r0, r4
  102d60:	469c      	mov	ip, r3
  102d62:	2401      	mov	r4, #1
  102d64:	41e3      	ror	r3, r4
  102d66:	431a      	orr	r2, r3
  102d68:	4663      	mov	r3, ip
  102d6a:	088c      	lsr	r4, r1, #2
  102d6c:	42a0      	cmp	r0, r4
  102d6e:	d305      	bcc	102d7c <__umodsi3+0x5c>
  102d70:	1b00      	sub	r0, r0, r4
  102d72:	469c      	mov	ip, r3
  102d74:	2402      	mov	r4, #2
  102d76:	41e3      	ror	r3, r4
  102d78:	431a      	orr	r2, r3
  102d7a:	4663      	mov	r3, ip
  102d7c:	08cc      	lsr	r4, r1, #3
  102d7e:	42a0      	cmp	r0, r4
  102d80:	d305      	bcc	102d8e <__umodsi3+0x6e>
  102d82:	1b00      	sub	r0, r0, r4
  102d84:	469c      	mov	ip, r3
  102d86:	2403      	mov	r4, #3
  102d88:	41e3      	ror	r3, r4
  102d8a:	431a      	orr	r2, r3
  102d8c:	4663      	mov	r3, ip
  102d8e:	469c      	mov	ip, r3
  102d90:	2800      	cmp	r0, #0
  102d92:	d003      	beq	102d9c <__umodsi3+0x7c>
  102d94:	091b      	lsr	r3, r3, #4
  102d96:	d001      	beq	102d9c <__umodsi3+0x7c>
  102d98:	0909      	lsr	r1, r1, #4
  102d9a:	e7d9      	b	102d50 <__umodsi3+0x30>
  102d9c:	240e      	mov	r4, #14
  102d9e:	0724      	lsl	r4, r4, #28
  102da0:	4022      	and	r2, r4
  102da2:	d018      	beq	102dd6 <__umodsi3+0xb6>
  102da4:	4663      	mov	r3, ip
  102da6:	2407      	mov	r4, #7
  102da8:	4223      	tst	r3, r4
  102daa:	d014      	beq	102dd6 <__umodsi3+0xb6>
  102dac:	4663      	mov	r3, ip
  102dae:	2403      	mov	r4, #3
  102db0:	41e3      	ror	r3, r4
  102db2:	421a      	tst	r2, r3
  102db4:	d001      	beq	102dba <__umodsi3+0x9a>
  102db6:	08cc      	lsr	r4, r1, #3
  102db8:	1900      	add	r0, r0, r4
  102dba:	4663      	mov	r3, ip
  102dbc:	2402      	mov	r4, #2
  102dbe:	41e3      	ror	r3, r4
  102dc0:	421a      	tst	r2, r3
  102dc2:	d001      	beq	102dc8 <__umodsi3+0xa8>
  102dc4:	088c      	lsr	r4, r1, #2
  102dc6:	1900      	add	r0, r0, r4
  102dc8:	4663      	mov	r3, ip
  102dca:	2401      	mov	r4, #1
  102dcc:	41e3      	ror	r3, r4
  102dce:	421a      	tst	r2, r3
  102dd0:	d001      	beq	102dd6 <__umodsi3+0xb6>
  102dd2:	084c      	lsr	r4, r1, #1
  102dd4:	1900      	add	r0, r0, r4
  102dd6:	bc10      	pop	{r4}
  102dd8:	4770      	bx	lr
  102dda:	b502      	push	{r1, lr}
  102ddc:	f804f000 	bl	102de8 <__aeabi_idiv0>
  102de0:	2000      	mov	r0, #0
  102de2:	bc06      	pop	{r1, r2}
  102de4:	4710      	bx	r2
  102de6:	46c0      	nop			(mov r8, r8)

00102de8 <__aeabi_idiv0>:
  102de8:	4770      	bx	lr
  102dea:	46c0      	nop			(mov r8, r8)

00102dec <____umodsi3_from_arm>:
  102dec:	e59fc000 	ldr	ip, [pc, #0]	; 102df4 <____umodsi3_from_arm+0x8>
  102df0:	e12fff1c 	bx	ip
  102df4:	00102d21 	andeqs	r2, r0, r1, lsr #26

00102df8 <__init_timer_from_thumb>:
  102df8:	4778      	bx	pc
  102dfa:	46c0      	nop			(mov r8, r8)

00102dfc <__init_timer_change_to_arm>:
  102dfc:	eafff4ed 	b	1001b8 <init_timer>

00102e00 <__init_extint_from_thumb>:
  102e00:	4778      	bx	pc
  102e02:	46c0      	nop			(mov r8, r8)

00102e04 <__init_extint_change_to_arm>:
  102e04:	eafff4f8 	b	1001ec <init_extint>
Disassembly of section .data:

00200000 <_data>:
  200000:	e59ff018 	ldr	pc, [pc, #24]	; 200020 <Reset_AddrR>
  200004:	e59ff018 	ldr	pc, [pc, #24]	; 200024 <Undef_AddrR>
  200008:	e59ff018 	ldr	pc, [pc, #24]	; 200028 <SWI_AddrR>
  20000c:	e59ff018 	ldr	pc, [pc, #24]	; 20002c <PAbt_AddrR>
  200010:	e59ff018 	ldr	pc, [pc, #24]	; 200030 <DAbt_AddrR>
  200014:	e1a00000 	nop			(mov r0,r0)
  200018:	e51fff20 	ldr	pc, [pc, #-3872]	; 1ff100 <PMC_PLLR_Val+0x6d4fb>
  20001c:	e51fff20 	ldr	pc, [pc, #-3872]	; 1ff104 <PMC_PLLR_Val+0x6d4ff>

00200020 <Reset_AddrR>:
  200020:	0010005c 	andeqs	r0, r0, ip, asr r0

00200024 <Undef_AddrR>:
  200024:	00200040 	eoreq	r0, r0, r0, asr #32

00200028 <SWI_AddrR>:
  200028:	00200044 	eoreq	r0, r0, r4, asr #32

0020002c <PAbt_AddrR>:
  20002c:	00200048 	eoreq	r0, r0, r8, asr #32

00200030 <DAbt_AddrR>:
  200030:	0020004c 	eoreq	r0, r0, ip, asr #32
  200034:	00000000 	andeq	r0, r0, r0

00200038 <IRQ_AddrR>:
  200038:	00200050 	eoreq	r0, r0, r0, asr r0

0020003c <FIQ_AddrR>:
  20003c:	00200054 	eoreq	r0, r0, r4, asr r0

00200040 <Undef_HandlerR>:
  200040:	eafffffe 	b	200040 <Undef_HandlerR>

00200044 <SWI_HandlerR>:
  200044:	eafffffe 	b	200044 <SWI_HandlerR>

00200048 <PAbt_HandlerR>:
  200048:	eafffffe 	b	200048 <PAbt_HandlerR>

0020004c <DAbt_HandlerR>:
  20004c:	eafffffe 	b	20004c <DAbt_HandlerR>

00200050 <IRQ_HandlerR>:
  200050:	eafffffe 	b	200050 <IRQ_HandlerR>

00200054 <FIQ_HandlerR>:
  200054:	eafffffe 	b	200054 <FIQ_HandlerR>

00200058 <pPIO>:
  200058:	fffff400                                ....

0020005c <pUSART>:
  20005c:	fffc0000                                ....

00200060 <_impure_ptr>:
  200060:	00200064                                d. .

00200064 <impure_data>:
  200064:	00000000 00200350 002003ac 00200408     ....P. ... ... .
	...
  200098:	0010305c 00000000 00000000 00000000     \0..............
	...
  200108:	00000001 00000000 abcd330e e66d1234     .........3..4.m.
  200118:	0005deec 0000000b 00000000 00000000     ................
	...

00200464 <__mb_cur_max>:
  200464:	00000001                                ....

00200468 <__lc_ctype>:
  200468:	00000043 00000000 00000000              C...........

00200474 <__malloc_av_>:
	...
  20047c:	00200474 00200474 0020047c 0020047c     t. .t. .|. .|. .
  20048c:	00200484 00200484 0020048c 0020048c     .. ... ... ... .
  20049c:	00200494 00200494 0020049c 0020049c     .. ... ... ... .
  2004ac:	002004a4 002004a4 002004ac 002004ac     .. ... ... ... .
  2004bc:	002004b4 002004b4 002004bc 002004bc     .. ... ... ... .
  2004cc:	002004c4 002004c4 002004cc 002004cc     .. ... ... ... .
  2004dc:	002004d4 002004d4 002004dc 002004dc     .. ... ... ... .
  2004ec:	002004e4 002004e4 002004ec 002004ec     .. ... ... ... .
  2004fc:	002004f4 002004f4 002004fc 002004fc     .. ... ... ... .
  20050c:	00200504 00200504 0020050c 0020050c     .. ... ... ... .
  20051c:	00200514 00200514 0020051c 0020051c     .. ... ... ... .
  20052c:	00200524 00200524 0020052c 0020052c     $. .$. .,. .,. .
  20053c:	00200534 00200534 0020053c 0020053c     4. .4. .<. .<. .
  20054c:	00200544 00200544 0020054c 0020054c     D. .D. .L. .L. .
  20055c:	00200554 00200554 0020055c 0020055c     T. .T. .\. .\. .
  20056c:	00200564 00200564 0020056c 0020056c     d. .d. .l. .l. .
  20057c:	00200574 00200574 0020057c 0020057c     t. .t. .|. .|. .
  20058c:	00200584 00200584 0020058c 0020058c     .. ... ... ... .
  20059c:	00200594 00200594 0020059c 0020059c     .. ... ... ... .
  2005ac:	002005a4 002005a4 002005ac 002005ac     .. ... ... ... .
  2005bc:	002005b4 002005b4 002005bc 002005bc     .. ... ... ... .
  2005cc:	002005c4 002005c4 002005cc 002005cc     .. ... ... ... .
  2005dc:	002005d4 002005d4 002005dc 002005dc     .. ... ... ... .
  2005ec:	002005e4 002005e4 002005ec 002005ec     .. ... ... ... .
  2005fc:	002005f4 002005f4 002005fc 002005fc     .. ... ... ... .
  20060c:	00200604 00200604 0020060c 0020060c     .. ... ... ... .
  20061c:	00200614 00200614 0020061c 0020061c     .. ... ... ... .
  20062c:	00200624 00200624 0020062c 0020062c     $. .$. .,. .,. .
  20063c:	00200634 00200634 0020063c 0020063c     4. .4. .<. .<. .
  20064c:	00200644 00200644 0020064c 0020064c     D. .D. .L. .L. .
  20065c:	00200654 00200654 0020065c 0020065c     T. .T. .\. .\. .
  20066c:	00200664 00200664 0020066c 0020066c     d. .d. .l. .l. .
  20067c:	00200674 00200674 0020067c 0020067c     t. .t. .|. .|. .
  20068c:	00200684 00200684 0020068c 0020068c     .. ... ... ... .
  20069c:	00200694 00200694 0020069c 0020069c     .. ... ... ... .
  2006ac:	002006a4 002006a4 002006ac 002006ac     .. ... ... ... .
  2006bc:	002006b4 002006b4 002006bc 002006bc     .. ... ... ... .
  2006cc:	002006c4 002006c4 002006cc 002006cc     .. ... ... ... .
  2006dc:	002006d4 002006d4 002006dc 002006dc     .. ... ... ... .
  2006ec:	002006e4 002006e4 002006ec 002006ec     .. ... ... ... .
  2006fc:	002006f4 002006f4 002006fc 002006fc     .. ... ... ... .
  20070c:	00200704 00200704 0020070c 0020070c     .. ... ... ... .
  20071c:	00200714 00200714 0020071c 0020071c     .. ... ... ... .
  20072c:	00200724 00200724 0020072c 0020072c     $. .$. .,. .,. .
  20073c:	00200734 00200734 0020073c 0020073c     4. .4. .<. .<. .
  20074c:	00200744 00200744 0020074c 0020074c     D. .D. .L. .L. .
  20075c:	00200754 00200754 0020075c 0020075c     T. .T. .\. .\. .
  20076c:	00200764 00200764 0020076c 0020076c     d. .d. .l. .l. .
  20077c:	00200774 00200774 0020077c 0020077c     t. .t. .|. .|. .
  20078c:	00200784 00200784 0020078c 0020078c     .. ... ... ... .
  20079c:	00200794 00200794 0020079c 0020079c     .. ... ... ... .
  2007ac:	002007a4 002007a4 002007ac 002007ac     .. ... ... ... .
  2007bc:	002007b4 002007b4 002007bc 002007bc     .. ... ... ... .
  2007cc:	002007c4 002007c4 002007cc 002007cc     .. ... ... ... .
  2007dc:	002007d4 002007d4 002007dc 002007dc     .. ... ... ... .
  2007ec:	002007e4 002007e4 002007ec 002007ec     .. ... ... ... .
  2007fc:	002007f4 002007f4 002007fc 002007fc     .. ... ... ... .
  20080c:	00200804 00200804 0020080c 0020080c     .. ... ... ... .
  20081c:	00200814 00200814 0020081c 0020081c     .. ... ... ... .
  20082c:	00200824 00200824 0020082c 0020082c     $. .$. .,. .,. .
  20083c:	00200834 00200834 0020083c 0020083c     4. .4. .<. .<. .
  20084c:	00200844 00200844 0020084c 0020084c     D. .D. .L. .L. .
  20085c:	00200854 00200854 0020085c 0020085c     T. .T. .\. .\. .
  20086c:	00200864 00200864 0020086c 0020086c     d. .d. .l. .l. .

0020087c <__malloc_trim_threshold>:
  20087c:	00020000                                ....

00200880 <__malloc_sbrk_base>:
  200880:	ffffffff                                ....

00200884 <system_int>:
  200884:	e24ee004 	sub	lr, lr, #4	; 0x4
  200888:	e92d5fff 	stmdb	sp!, {r0, r1, r2, r3, r4, r5, r6, r7, r8, r9, sl, fp, ip, lr}
  20088c:	e14f1000 	mrs	r1, SPSR
  200890:	e92d0002 	stmdb	sp!, {r1}
  200894:	e3e04c02 	mvn	r4, #512	; 0x200
  200898:	e51430cb 	ldr	r3, [r4, #-203]
  20089c:	e2132001 	ands	r2, r3, #1	; 0x1
  2008a0:	e59f0044 	ldr	r0, [pc, #68]	; 2008ec <.data+0x8ec>
  2008a4:	e3a01f7d 	mov	r1, #500	; 0x1f4
  2008a8:	0a00000a 	beq	2008d8 <system_int+0x54>
  2008ac:	e5903000 	ldr	r3, [r0]
  2008b0:	e2833001 	add	r3, r3, #1	; 0x1
  2008b4:	e5803000 	str	r3, [r0]
  2008b8:	e5900000 	ldr	r0, [r0]
  2008bc:	ebfc094a 	bl	102dec <____umodsi3_from_arm>
  2008c0:	e3e02000 	mvn	r2, #0	; 0x0
  2008c4:	e3500000 	cmp	r0, #0	; 0x0
  2008c8:	05123bc7 	ldreq	r3, [r2, #-3015]
  2008cc:	02233008 	eoreq	r3, r3, #8	; 0x8
  2008d0:	05023bc7 	streq	r3, [r2, #-3015]
  2008d4:	e51420c7 	ldr	r2, [r4, #-199]
  2008d8:	e3e03000 	mvn	r3, #0	; 0x0
  2008dc:	e5032ecf 	str	r2, [r3, #-3791]
  2008e0:	e8bd0002 	ldmia	sp!, {r1}
  2008e4:	e161f001 	msr	SPSR_c, r1
  2008e8:	e8fd9fff 	ldmia	sp!, {r0, r1, r2, r3, r4, r5, r6, r7, r8, r9, sl, fp, ip, pc}^
  2008ec:	002009a0 	eoreq	r0, r0, r0, lsr #19

002008f0 <irq0_int>:
  2008f0:	e92d5fff 	stmdb	sp!, {r0, r1, r2, r3, r4, r5, r6, r7, r8, r9, sl, fp, ip, lr}
  2008f4:	e14fe000 	mrs	lr, SPSR
  2008f8:	e92d4000 	stmdb	sp!, {lr}
  2008fc:	e321f01f 	msr	CPSR_c, #31	; 0x1f
  200900:	e92d4000 	stmdb	sp!, {lr}
  200904:	e59f304c 	ldr	r3, [pc, #76]	; 200958 <.data+0x958>
  200908:	e5932000 	ldr	r2, [r3]
  20090c:	e592303c 	ldr	r3, [r2, #60]
  200910:	e3130601 	tst	r3, #1048576	; 0x100000
  200914:	1a000006 	bne	200934 <irq0_int+0x44>
  200918:	e3a03002 	mov	r3, #2	; 0x2
  20091c:	e5823034 	str	r3, [r2, #52]
  200920:	e592303c 	ldr	r3, [r2, #60]
  200924:	e3130601 	tst	r3, #1048576	; 0x100000
  200928:	0afffffc 	beq	200920 <irq0_int+0x30>
  20092c:	e3a03002 	mov	r3, #2	; 0x2
  200930:	e5823030 	str	r3, [r2, #48]
  200934:	e8bd4000 	ldmia	sp!, {lr}
  200938:	e321f092 	msr	CPSR_c, #146	; 0x92
  20093c:	e8bd4000 	ldmia	sp!, {lr}
  200940:	e16ff00e 	msr	SPSR_fsxc, lr
  200944:	e3a02000 	mov	r2, #0	; 0x0
  200948:	e3e03000 	mvn	r3, #0	; 0x0
  20094c:	e5032ecf 	str	r2, [r3, #-3791]
  200950:	e8bd5fff 	ldmia	sp!, {r0, r1, r2, r3, r4, r5, r6, r7, r8, r9, sl, fp, ip, lr}
  200954:	e25ef004 	subs	pc, lr, #4	; 0x4
  200958:	00200058 	eoreq	r0, r0, r8, asr r0
